---
triple:          'x86_64-apple-darwin'
binary-path:     '/Users/steven/Projects-Workspace/Data-Structures/DataStructures/PolisYCacos/main'
relocations:
  - { offsetInCU: 0x5C, offset: 0x5C, size: 0x8, addend: 0x0, symName: __ZNSt3__119piecewise_constructE, symObjAddr: 0xE1E3, symBinAddr: 0x10000EAD8, symSize: 0x0 }
  - { offsetInCU: 0x16114, offset: 0x16114, size: 0x8, addend: 0x0, symName: __ZNSt3__124__put_character_sequenceB8ue170006IcNS_11char_traitsIcEEEERNS_13basic_ostreamIT_T0_EES7_PKS4_m, symObjAddr: 0xD2E0, symBinAddr: 0x10000DAF0, symSize: 0x1F0 }
  - { offsetInCU: 0x184FB, offset: 0x184FB, size: 0x8, addend: 0x0, symName: __ZNSt3__1rsB8ue170006IcNS_11char_traitsIcEENS_9allocatorIcEEEERNS_13basic_istreamIT_T0_EES9_RNS_12basic_stringIS6_S7_T1_EE, symObjAddr: 0x950, symBinAddr: 0x100001160, symSize: 0x2F0 }
  - { offsetInCU: 0x185CA, offset: 0x185CA, size: 0x8, addend: 0x0, symName: __ZNSt3__1neB8ue170006IcNS_11char_traitsIcEENS_9allocatorIcEEEEbRKNS_12basic_stringIT_T0_T1_EEPKS6_, symObjAddr: 0xC60, symBinAddr: 0x100001470, symSize: 0x30 }
  - { offsetInCU: 0x18622, offset: 0x18622, size: 0x8, addend: 0x0, symName: __ZNSt3__1eqB8ue170006IcNS_11char_traitsIcEENS_9allocatorIcEEEEbRKNS_12basic_stringIT_T0_T1_EEPKS6_, symObjAddr: 0xC90, symBinAddr: 0x1000014A0, symSize: 0x90 }
  - { offsetInCU: 0x18689, offset: 0x18689, size: 0x8, addend: 0x0, symName: __ZNSt3__1lsB8ue170006INS_11char_traitsIcEEEERNS_13basic_ostreamIcT_EES6_PKc, symObjAddr: 0xF40, symBinAddr: 0x100001750, symSize: 0x40 }
  - { offsetInCU: 0x186CF, offset: 0x186CF, size: 0x8, addend: 0x0, symName: __ZNSt3__1lsB8ue170006IcNS_11char_traitsIcEENS_9allocatorIcEEEERNS_13basic_ostreamIT_T0_EES9_RKNS_12basic_stringIS6_S7_T1_EE, symObjAddr: 0xF80, symBinAddr: 0x100001790, symSize: 0x50 }
  - { offsetInCU: 0x18727, offset: 0x18727, size: 0x8, addend: 0x0, symName: __ZNSt3__14endlB8ue170006IcNS_11char_traitsIcEEEERNS_13basic_ostreamIT_T0_EES7_, symObjAddr: 0x1470, symBinAddr: 0x100001C80, symSize: 0x50 }
  - { offsetInCU: 0x18EDC, offset: 0x18EDC, size: 0x8, addend: 0x0, symName: __ZNSt3__1neB8ue170006ERKNS_19__hash_map_iteratorINS_15__hash_iteratorIPNS_11__hash_nodeINS_17__hash_value_typeINS_12basic_stringIcNS_11char_traitsIcEENS_9allocatorIcEEEEN10PolisCacos8InfoCacoEEEPvEEEEEESJ_, symObjAddr: 0x2AC0, symBinAddr: 0x1000032D0, symSize: 0x30 }
  - { offsetInCU: 0x18F19, offset: 0x18F19, size: 0x8, addend: 0x0, symName: __ZNSt3__1neB8ue170006ERKNS_15__hash_iteratorIPNS_11__hash_nodeINS_17__hash_value_typeINS_12basic_stringIcNS_11char_traitsIcEENS_9allocatorIcEEEEN10PolisCacos8InfoCacoEEEPvEEEESH_, symObjAddr: 0x2E70, symBinAddr: 0x100003680, symSize: 0x30 }
  - { offsetInCU: 0x18F56, offset: 0x18F56, size: 0x8, addend: 0x0, symName: __ZNSt3__1eqB8ue170006ERKNS_15__hash_iteratorIPNS_11__hash_nodeINS_17__hash_value_typeINS_12basic_stringIcNS_11char_traitsIcEENS_9allocatorIcEEEEN10PolisCacos8InfoCacoEEEPvEEEESH_, symObjAddr: 0x2EA0, symBinAddr: 0x1000036B0, symSize: 0x30 }
  - { offsetInCU: 0x18F93, offset: 0x18F93, size: 0x8, addend: 0x0, symName: __ZNSt3__116__constrain_hashB8ue170006Emm, symObjAddr: 0x3100, symBinAddr: 0x100003910, symSize: 0x80 }
  - { offsetInCU: 0x18FCD, offset: 0x18FCD, size: 0x8, addend: 0x0, symName: __ZNSt3__116__do_string_hashB8ue170006IPKcEEmT_S3_, symObjAddr: 0x3340, symBinAddr: 0x100003B50, symSize: 0x40 }
  - { offsetInCU: 0x19013, offset: 0x19013, size: 0x8, addend: 0x0, symName: __ZNSt3__110__loadwordB8ue170006ImEET_PKv, symObjAddr: 0x3CB0, symBinAddr: 0x1000044C0, symSize: 0x20 }
  - { offsetInCU: 0x19056, offset: 0x19056, size: 0x8, addend: 0x0, symName: __ZNSt3__14swapB8ue170006ImEENS_9enable_ifIXaasr21is_move_constructibleIT_EE5valuesr18is_move_assignableIS2_EE5valueEvE4typeERS2_S5_, symObjAddr: 0x3E70, symBinAddr: 0x100004680, symSize: 0x40 }
  - { offsetInCU: 0x190A7, offset: 0x190A7, size: 0x8, addend: 0x0, symName: __ZNSt3__110__loadwordB8ue170006IjEET_PKv, symObjAddr: 0x3F00, symBinAddr: 0x100004710, symSize: 0x20 }
  - { offsetInCU: 0x190EA, offset: 0x190EA, size: 0x8, addend: 0x0, symName: __ZNSt3__112__to_addressB8ue170006IKcEEPT_S3_, symObjAddr: 0x4050, symBinAddr: 0x100004860, symSize: 0x10 }
  - { offsetInCU: 0x19152, offset: 0x19152, size: 0x8, addend: 0x0, symName: __ZNSt3__1eqB8ue170006INS_9allocatorIcEEEEbRKNS_12basic_stringIcNS_11char_traitsIcEET_EES9_, symObjAddr: 0x4310, symBinAddr: 0x100004B20, symSize: 0x110 }
  - { offsetInCU: 0x191C5, offset: 0x191C5, size: 0x8, addend: 0x0, symName: __ZNSt3__17launderB8ue170006IKNS_4pairIKNS_12basic_stringIcNS_11char_traitsIcEENS_9allocatorIcEEEEN10PolisCacos8InfoCacoEEEEEPT_SE_, symObjAddr: 0x4450, symBinAddr: 0x100004C60, symSize: 0x20 }
  - { offsetInCU: 0x191FC, offset: 0x191FC, size: 0x8, addend: 0x0, symName: __ZNSt3__19__launderB8ue170006IKNS_4pairIKNS_12basic_stringIcNS_11char_traitsIcEENS_9allocatorIcEEEEN10PolisCacos8InfoCacoEEEEEPT_SE_, symObjAddr: 0x4470, symBinAddr: 0x100004C80, symSize: 0x10 }
  - { offsetInCU: 0x19284, offset: 0x19284, size: 0x8, addend: 0x0, symName: __ZNSt3__117__libcpp_allocateB8ue170006Emm, symObjAddr: 0x49B0, symBinAddr: 0x1000051C0, symSize: 0x60 }
  - { offsetInCU: 0x192DE, offset: 0x192DE, size: 0x8, addend: 0x0, symName: __ZNSt3__124__is_overaligned_for_newB8ue170006Em, symObjAddr: 0x4A30, symBinAddr: 0x100005240, symSize: 0x20 }
  - { offsetInCU: 0x1930C, offset: 0x1930C, size: 0x8, addend: 0x0, symName: __ZNSt3__121__libcpp_operator_newB8ue170006IJmSt11align_val_tEEEPvDpT_, symObjAddr: 0x4A50, symBinAddr: 0x100005260, symSize: 0x30 }
  - { offsetInCU: 0x19359, offset: 0x19359, size: 0x8, addend: 0x0, symName: __ZNSt3__121__libcpp_operator_newB8ue170006IJmEEEPvDpT_, symObjAddr: 0x4A80, symBinAddr: 0x100005290, symSize: 0x20 }
  - { offsetInCU: 0x19392, offset: 0x19392, size: 0x8, addend: 0x0, symName: __ZNSt3__119__libcpp_deallocateB8ue170006EPvmm, symObjAddr: 0x4E00, symBinAddr: 0x100005610, symSize: 0x60 }
  - { offsetInCU: 0x193F7, offset: 0x193F7, size: 0x8, addend: 0x0, symName: __ZNSt3__127__do_deallocate_handle_sizeB8ue170006IJSt11align_val_tEEEvPvmDpT_, symObjAddr: 0x4E60, symBinAddr: 0x100005670, symSize: 0x30 }
  - { offsetInCU: 0x1944A, offset: 0x1944A, size: 0x8, addend: 0x0, symName: __ZNSt3__127__do_deallocate_handle_sizeB8ue170006IJEEEvPvmDpT_, symObjAddr: 0x4E90, symBinAddr: 0x1000056A0, symSize: 0x20 }
  - { offsetInCU: 0x19488, offset: 0x19488, size: 0x8, addend: 0x0, symName: __ZNSt3__124__libcpp_operator_deleteB8ue170006IJPvSt11align_val_tEEEvDpT_, symObjAddr: 0x4EB0, symBinAddr: 0x1000056C0, symSize: 0x30 }
  - { offsetInCU: 0x194D1, offset: 0x194D1, size: 0x8, addend: 0x0, symName: __ZNSt3__124__libcpp_operator_deleteB8ue170006IJPvEEEvDpT_, symObjAddr: 0x4EE0, symBinAddr: 0x1000056F0, symSize: 0x20 }
  - { offsetInCU: 0x19506, offset: 0x19506, size: 0x8, addend: 0x0, symName: __ZNSt3__13maxB8ue170006ImEERKT_S3_S3_, symObjAddr: 0x5700, symBinAddr: 0x100005F10, symSize: 0x30 }
  - { offsetInCU: 0x19549, offset: 0x19549, size: 0x8, addend: 0x0, symName: __ZNSt3__116__is_hash_power2B8ue170006Em, symObjAddr: 0x5730, symBinAddr: 0x100005F40, symSize: 0x40 }
  - { offsetInCU: 0x19593, offset: 0x19593, size: 0x8, addend: 0x0, symName: __ZNSt3__17launderB8ue170006INS_4pairIKNS_12basic_stringIcNS_11char_traitsIcEENS_9allocatorIcEEEEN10PolisCacos8InfoCacoEEEEEPT_SD_, symObjAddr: 0x6080, symBinAddr: 0x100006890, symSize: 0x20 }
  - { offsetInCU: 0x195CA, offset: 0x195CA, size: 0x8, addend: 0x0, symName: __ZNSt3__19__launderB8ue170006INS_4pairIKNS_12basic_stringIcNS_11char_traitsIcEENS_9allocatorIcEEEEN10PolisCacos8InfoCacoEEEEEPT_SD_, symObjAddr: 0x60A0, symBinAddr: 0x1000068B0, symSize: 0x10 }
  - { offsetInCU: 0x19601, offset: 0x19601, size: 0x8, addend: 0x0, symName: __ZNSt3__116__next_hash_pow2B8ue170006Em, symObjAddr: 0x65B0, symBinAddr: 0x100006DC0, symSize: 0x60 }
  - { offsetInCU: 0x19649, offset: 0x19649, size: 0x8, addend: 0x0, symName: __ZNSt3__112__libcpp_clzB8ue170006Em, symObjAddr: 0x6910, symBinAddr: 0x100007120, symSize: 0x20 }
  - { offsetInCU: 0x19675, offset: 0x19675, size: 0x8, addend: 0x0, symName: __ZNSt3__13maxB8ue170006ImNS_6__lessIvvEEEERKT_S5_S5_T0_, symObjAddr: 0x6930, symBinAddr: 0x100007140, symSize: 0x50 }
  - { offsetInCU: 0x19714, offset: 0x19714, size: 0x8, addend: 0x0, symName: __ZNSt3__1neB8ue170006ERKNS_21__list_const_iteratorINS_12basic_stringIcNS_11char_traitsIcEENS_9allocatorIcEEEEPvEESA_, symObjAddr: 0x6ED0, symBinAddr: 0x1000076E0, symSize: 0x30 }
  - { offsetInCU: 0x19751, offset: 0x19751, size: 0x8, addend: 0x0, symName: __ZNSt3__1eqB8ue170006ERKNS_21__list_const_iteratorINS_12basic_stringIcNS_11char_traitsIcEENS_9allocatorIcEEEEPvEESA_, symObjAddr: 0x7050, symBinAddr: 0x100007860, symSize: 0x30 }
  - { offsetInCU: 0x197C5, offset: 0x197C5, size: 0x8, addend: 0x0, symName: __ZNSt3__116forward_as_tupleB8ue170006IJRKNS_12basic_stringIcNS_11char_traitsIcEENS_9allocatorIcEEEEEEENS_5tupleIJDpOT_EEESC_, symObjAddr: 0x77D0, symBinAddr: 0x100007FE0, symSize: 0x30 }
  - { offsetInCU: 0x197FE, offset: 0x197FE, size: 0x8, addend: 0x0, symName: __ZNSt3__116forward_as_tupleB8ue170006IJEEENS_5tupleIJDpOT_EEES4_, symObjAddr: 0x7800, symBinAddr: 0x100008010, symSize: 0x10 }
  - { offsetInCU: 0x19822, offset: 0x19822, size: 0x8, addend: 0x0, symName: __ZNSt3__17launderB8ue170006IKNS_4pairIKNS_12basic_stringIcNS_11char_traitsIcEENS_9allocatorIcEEEENS_3mapIiS7_NS_4lessIiEENS5_INS1_IKiS7_EEEEEEEEEEPT_SJ_, symObjAddr: 0x7DF0, symBinAddr: 0x100008600, symSize: 0x20 }
  - { offsetInCU: 0x19859, offset: 0x19859, size: 0x8, addend: 0x0, symName: __ZNSt3__19__launderB8ue170006IKNS_4pairIKNS_12basic_stringIcNS_11char_traitsIcEENS_9allocatorIcEEEENS_3mapIiS7_NS_4lessIiEENS5_INS1_IKiS7_EEEEEEEEEEPT_SJ_, symObjAddr: 0x7E10, symBinAddr: 0x100008620, symSize: 0x10 }
  - { offsetInCU: 0x198EC, offset: 0x198EC, size: 0x8, addend: 0x0, symName: __ZNSt3__13getB8ue170006ILm0EJRKNS_12basic_stringIcNS_11char_traitsIcEENS_9allocatorIcEEEEEEERNS_13tuple_elementIXT_ENS_5tupleIJDpT0_EEEE4typeERSD_, symObjAddr: 0x8250, symBinAddr: 0x100008A60, symSize: 0x20 }
  - { offsetInCU: 0x19962, offset: 0x19962, size: 0x8, addend: 0x0, symName: __ZNSt3__17launderB8ue170006INS_4pairIKiNS_12basic_stringIcNS_11char_traitsIcEENS_9allocatorIcEEEEEEEEPT_SB_, symObjAddr: 0x9260, symBinAddr: 0x100009A70, symSize: 0x20 }
  - { offsetInCU: 0x19999, offset: 0x19999, size: 0x8, addend: 0x0, symName: __ZNSt3__19__launderB8ue170006INS_4pairIKiNS_12basic_stringIcNS_11char_traitsIcEENS_9allocatorIcEEEEEEEEPT_SB_, symObjAddr: 0x9280, symBinAddr: 0x100009A90, symSize: 0x10 }
  - { offsetInCU: 0x19A27, offset: 0x19A27, size: 0x8, addend: 0x0, symName: __ZNSt3__17launderB8ue170006INS_4pairIKNS_12basic_stringIcNS_11char_traitsIcEENS_9allocatorIcEEEENS_3mapIiS7_NS_4lessIiEENS5_INS1_IKiS7_EEEEEEEEEEPT_SI_, symObjAddr: 0x94B0, symBinAddr: 0x100009CC0, symSize: 0x20 }
  - { offsetInCU: 0x19A5E, offset: 0x19A5E, size: 0x8, addend: 0x0, symName: __ZNSt3__19__launderB8ue170006INS_4pairIKNS_12basic_stringIcNS_11char_traitsIcEENS_9allocatorIcEEEENS_3mapIiS7_NS_4lessIiEENS5_INS1_IKiS7_EEEEEEEEEEPT_SI_, symObjAddr: 0x94D0, symBinAddr: 0x100009CE0, symSize: 0x10 }
  - { offsetInCU: 0x19A95, offset: 0x19A95, size: 0x8, addend: 0x0, symName: __ZNSt3__116forward_as_tupleB8ue170006IJRKiEEENS_5tupleIJDpOT_EEES6_, symObjAddr: 0x95E0, symBinAddr: 0x100009DF0, symSize: 0x30 }
  - { offsetInCU: 0x19ACE, offset: 0x19ACE, size: 0x8, addend: 0x0, symName: __ZNSt3__17launderB8ue170006IKNS_4pairIKiNS_12basic_stringIcNS_11char_traitsIcEENS_9allocatorIcEEEEEEEEPT_SC_, symObjAddr: 0x9BD0, symBinAddr: 0x10000A3E0, symSize: 0x20 }
  - { offsetInCU: 0x19B05, offset: 0x19B05, size: 0x8, addend: 0x0, symName: __ZNSt3__19__launderB8ue170006IKNS_4pairIKiNS_12basic_stringIcNS_11char_traitsIcEENS_9allocatorIcEEEEEEEEPT_SC_, symObjAddr: 0x9BF0, symBinAddr: 0x10000A400, symSize: 0x10 }
  - { offsetInCU: 0x19B5A, offset: 0x19B5A, size: 0x8, addend: 0x0, symName: __ZNSt3__13getB8ue170006ILm0EJRKiEEERNS_13tuple_elementIXT_ENS_5tupleIJDpT0_EEEE4typeERS7_, symObjAddr: 0x9FD0, symBinAddr: 0x10000A7E0, symSize: 0x20 }
  - { offsetInCU: 0x19B9D, offset: 0x19B9D, size: 0x8, addend: 0x0, symName: __ZNSt3__127__tree_balance_after_insertB8ue170006IPNS_16__tree_node_baseIPvEEEEvT_S5_, symObjAddr: 0xA070, symBinAddr: 0x10000A880, symSize: 0x320 }
  - { offsetInCU: 0x19C19, offset: 0x19C19, size: 0x8, addend: 0x0, symName: __ZNSt3__120__tree_is_left_childB8ue170006IPNS_16__tree_node_baseIPvEEEEbT_, symObjAddr: 0xA3D0, symBinAddr: 0x10000ABE0, symSize: 0x30 }
  - { offsetInCU: 0x19C4E, offset: 0x19C4E, size: 0x8, addend: 0x0, symName: __ZNSt3__118__tree_left_rotateB8ue170006IPNS_16__tree_node_baseIPvEEEEvT_, symObjAddr: 0xA400, symBinAddr: 0x10000AC10, symSize: 0xD0 }
  - { offsetInCU: 0x19C90, offset: 0x19C90, size: 0x8, addend: 0x0, symName: __ZNSt3__119__tree_right_rotateB8ue170006IPNS_16__tree_node_baseIPvEEEEvT_, symObjAddr: 0xA4D0, symBinAddr: 0x10000ACE0, symSize: 0xC0 }
  - { offsetInCU: 0x19D1A, offset: 0x19D1A, size: 0x8, addend: 0x0, symName: __ZNSt3__1eqB8ue170006ERKNS_19__hash_map_iteratorINS_15__hash_iteratorIPNS_11__hash_nodeINS_17__hash_value_typeINS_12basic_stringIcNS_11char_traitsIcEENS_9allocatorIcEEEEN10PolisCacos8InfoCacoEEEPvEEEEEESJ_, symObjAddr: 0xA8D0, symBinAddr: 0x10000B0E0, symSize: 0x30 }
  - { offsetInCU: 0x19D57, offset: 0x19D57, size: 0x8, addend: 0x0, symName: __ZNSt3__1neB8ue170006ERKNS_15__list_iteratorINS_12basic_stringIcNS_11char_traitsIcEENS_9allocatorIcEEEEPvEESA_, symObjAddr: 0xA900, symBinAddr: 0x10000B110, symSize: 0x30 }
  - { offsetInCU: 0x19D94, offset: 0x19D94, size: 0x8, addend: 0x0, symName: __ZNSt3__1eqB8ue170006ERKNS_15__list_iteratorINS_12basic_stringIcNS_11char_traitsIcEENS_9allocatorIcEEEEPvEESA_, symObjAddr: 0xA9A0, symBinAddr: 0x10000B1B0, symSize: 0x30 }
  - { offsetInCU: 0x19E04, offset: 0x19E04, size: 0x8, addend: 0x0, symName: __ZNSt3__1eqB8ue170006ERKNS_15__tree_iteratorINS_12__value_typeIiNS_12basic_stringIcNS_11char_traitsIcEENS_9allocatorIcEEEEEEPNS_11__tree_nodeIS8_PvEElEESF_, symObjAddr: 0xB4F0, symBinAddr: 0x10000BD00, symSize: 0x30 }
  - { offsetInCU: 0x19E41, offset: 0x19E41, size: 0x8, addend: 0x0, symName: __ZNSt3__1neB8ue170006ERKNS_15__tree_iteratorINS_12__value_typeIiNS_12basic_stringIcNS_11char_traitsIcEENS_9allocatorIcEEEEEEPNS_11__tree_nodeIS8_PvEElEESF_, symObjAddr: 0xB6A0, symBinAddr: 0x10000BEB0, symSize: 0x30 }
  - { offsetInCU: 0x19E7E, offset: 0x19E7E, size: 0x8, addend: 0x0, symName: __ZNSt3__113__tree_removeB8ue170006IPNS_16__tree_node_baseIPvEEEEvT_S5_, symObjAddr: 0xB850, symBinAddr: 0x10000C060, symSize: 0x5E0 }
  - { offsetInCU: 0x19EFC, offset: 0x19EFC, size: 0x8, addend: 0x0, symName: __ZNSt3__116__tree_next_iterB8ue170006IPNS_15__tree_end_nodeIPNS_16__tree_node_baseIPvEEEES5_EET_T0_, symObjAddr: 0xBE30, symBinAddr: 0x10000C640, symSize: 0x80 }
  - { offsetInCU: 0x19F3A, offset: 0x19F3A, size: 0x8, addend: 0x0, symName: __ZNSt3__110__tree_minB8ue170006IPNS_16__tree_node_baseIPvEEEET_S5_, symObjAddr: 0xBEB0, symBinAddr: 0x10000C6C0, symSize: 0x30 }
  - { offsetInCU: 0x19F6F, offset: 0x19F6F, size: 0x8, addend: 0x0, symName: __ZNSt3__111__tree_nextB8ue170006IPNS_16__tree_node_baseIPvEEEET_S5_, symObjAddr: 0xBEE0, symBinAddr: 0x10000C6F0, symSize: 0x80 }
  - { offsetInCU: 0x1A1C1, offset: 0x1A1C1, size: 0x8, addend: 0x0, symName: __ZNSt3__19use_facetB8ue170006INS_5ctypeIcEEEERKT_RKNS_6localeE, symObjAddr: 0xCD90, symBinAddr: 0x10000D5A0, symSize: 0x30 }
  - { offsetInCU: 0x1A5D2, offset: 0x1A5D2, size: 0x8, addend: 0x0, symName: __ZNSt3__118__constexpr_strlenB8ue170006EPKc, symObjAddr: 0xD2C0, symBinAddr: 0x10000DAD0, symSize: 0x20 }
  - { offsetInCU: 0x1A5FE, offset: 0x1A5FE, size: 0x8, addend: 0x0, symName: __ZNSt3__116__pad_and_outputB8ue170006IcNS_11char_traitsIcEEEENS_19ostreambuf_iteratorIT_T0_EES6_PKS4_S8_S8_RNS_8ios_baseES4_, symObjAddr: 0xD4F0, symBinAddr: 0x10000DD00, symSize: 0x220 }
  - { offsetInCU: 0x1A6CE, offset: 0x1A6CE, size: 0x8, addend: 0x0, symName: __ZNSt3__112__to_addressB8ue170006IcEEPT_S2_, symObjAddr: 0xD8D0, symBinAddr: 0x10000E0E0, symSize: 0x10 }
  - { offsetInCU: 0x1ACB9, offset: 0x1ACB9, size: 0x8, addend: 0x0, symName: __ZSt28__throw_bad_array_new_lengthB8ue170006v, symObjAddr: 0x4970, symBinAddr: 0x100005180, symSize: 0x40 }
  - { offsetInCU: 0x1EE68, offset: 0x1EE68, size: 0x8, addend: 0x0, symName: __Z11tratar_casov, symObjAddr: 0x0, symBinAddr: 0x100000810, symSize: 0x910 }
  - { offsetInCU: 0x1EF5F, offset: 0x1EF5F, size: 0x8, addend: 0x0, symName: __ZN10PolisCacosC1Ev, symObjAddr: 0x910, symBinAddr: 0x100001120, symSize: 0x20 }
  - { offsetInCU: 0x1EF8B, offset: 0x1EF8B, size: 0x8, addend: 0x0, symName: __ZNSt3__112basic_stringIcNS_11char_traitsIcEENS_9allocatorIcEEEC1B8ue170006Ev, symObjAddr: 0x930, symBinAddr: 0x100001140, symSize: 0x20 }
  - { offsetInCU: 0x1EFB5, offset: 0x1EFB5, size: 0x8, addend: 0x0, symName: __ZNKSt3__19basic_iosIcNS_11char_traitsIcEEE3eofB8ue170006Ev, symObjAddr: 0xC40, symBinAddr: 0x100001450, symSize: 0x20 }
  - { offsetInCU: 0x1EFDB, offset: 0x1EFDB, size: 0x8, addend: 0x0, symName: __ZN10PolisCacos13nuevo_jugadorERKNSt3__112basic_stringIcNS0_11char_traitsIcEENS0_9allocatorIcEEEEiS8_, symObjAddr: 0xD20, symBinAddr: 0x100001530, symSize: 0x220 }
  - { offsetInCU: 0x1F03A, offset: 0x1F03A, size: 0x8, addend: 0x0, symName: __ZN10PolisCacos15descubrir_lugarERKNSt3__112basic_stringIcNS0_11char_traitsIcEENS0_9allocatorIcEEEES8_, symObjAddr: 0xFD0, symBinAddr: 0x1000017E0, symSize: 0x170 }
  - { offsetInCU: 0x1F07C, offset: 0x1F07C, size: 0x8, addend: 0x0, symName: __ZN10PolisCacos13cambiar_lugarERKNSt3__112basic_stringIcNS0_11char_traitsIcEENS0_9allocatorIcEEEE, symObjAddr: 0x1140, symBinAddr: 0x100001950, symSize: 0x310 }
  - { offsetInCU: 0x1F0CE, offset: 0x1F0CE, size: 0x8, addend: 0x0, symName: __ZNSt3__113basic_ostreamIcNS_11char_traitsIcEEElsB8ue170006EPFRS3_S4_E, symObjAddr: 0x1450, symBinAddr: 0x100001C60, symSize: 0x20 }
  - { offsetInCU: 0x1F102, offset: 0x1F102, size: 0x8, addend: 0x0, symName: __ZN10PolisCacos15abandonar_juegoERKNSt3__112basic_stringIcNS0_11char_traitsIcEENS0_9allocatorIcEEEE, symObjAddr: 0x14C0, symBinAddr: 0x100001CD0, symSize: 0x2B0 }
  - { offsetInCU: 0x1F18A, offset: 0x1F18A, size: 0x8, addend: 0x0, symName: __ZNK10PolisCacos14siguiente_poliEv, symObjAddr: 0x1770, symBinAddr: 0x100001F80, symSize: 0xC0 }
  - { offsetInCU: 0x1F1B0, offset: 0x1F1B0, size: 0x8, addend: 0x0, symName: __ZN10PolisCacos13poli_busca_enENSt3__112basic_stringIcNS0_11char_traitsIcEENS0_9allocatorIcEEEE, symObjAddr: 0x1830, symBinAddr: 0x100002040, symSize: 0x1F0 }
  - { offsetInCU: 0x1F202, offset: 0x1F202, size: 0x8, addend: 0x0, symName: __ZN10PolisCacosD1Ev, symObjAddr: 0x1A30, symBinAddr: 0x100002240, symSize: 0x20 }
  - { offsetInCU: 0x1F22E, offset: 0x1F22E, size: 0x8, addend: 0x0, symName: _main, symObjAddr: 0x1A50, symBinAddr: 0x100002260, symSize: 0x170 }
  - { offsetInCU: 0x1F312, offset: 0x1F312, size: 0x8, addend: 0x0, symName: __ZNSt3__114basic_ifstreamIcNS_11char_traitsIcEEEC1EPKcj, symObjAddr: 0x1BC0, symBinAddr: 0x1000023D0, symSize: 0x160 }
  - { offsetInCU: 0x1F35C, offset: 0x1F35C, size: 0x8, addend: 0x0, symName: __ZNSt3__19basic_iosIcNS_11char_traitsIcEEE5rdbufB8ue170006EPNS_15basic_streambufIcS2_EE, symObjAddr: 0x1D20, symBinAddr: 0x100002530, symSize: 0x40 }
  - { offsetInCU: 0x1F3A2, offset: 0x1F3A2, size: 0x8, addend: 0x0, symName: __ZNKSt3__114basic_ifstreamIcNS_11char_traitsIcEEE5rdbufEv, symObjAddr: 0x1D60, symBinAddr: 0x100002570, symSize: 0x20 }
  - { offsetInCU: 0x1F3CF, offset: 0x1F3CF, size: 0x8, addend: 0x0, symName: __ZNSt3__114basic_ifstreamIcNS_11char_traitsIcEEED1Ev, symObjAddr: 0x1D80, symBinAddr: 0x100002590, symSize: 0x40 }
  - { offsetInCU: 0x1F3FC, offset: 0x1F3FC, size: 0x8, addend: 0x0, symName: __ZN10PolisCacosC2Ev, symObjAddr: 0x1DC0, symBinAddr: 0x1000025D0, symSize: 0x40 }
  - { offsetInCU: 0x1F428, offset: 0x1F428, size: 0x8, addend: 0x0, symName: __ZNSt3__113unordered_mapINS_12basic_stringIcNS_11char_traitsIcEENS_9allocatorIcEEEEN10PolisCacos8InfoCacoENS_4hashIS6_EENS_8equal_toIS6_EENS4_INS_4pairIKS6_S8_EEEEEC1B8ue170006Ev, symObjAddr: 0x1E00, symBinAddr: 0x100002610, symSize: 0x20 }
  - { offsetInCU: 0x1F452, offset: 0x1F452, size: 0x8, addend: 0x0, symName: __ZNSt3__113unordered_mapINS_12basic_stringIcNS_11char_traitsIcEENS_9allocatorIcEEEENS_3mapIiS6_NS_4lessIiEENS4_INS_4pairIKiS6_EEEEEENS_4hashIS6_EENS_8equal_toIS6_EENS4_INSA_IKS6_SE_EEEEEC1B8ue170006Ev, symObjAddr: 0x1E20, symBinAddr: 0x100002630, symSize: 0x20 }
  - { offsetInCU: 0x1F47C, offset: 0x1F47C, size: 0x8, addend: 0x0, symName: __ZNSt3__14listINS_12basic_stringIcNS_11char_traitsIcEENS_9allocatorIcEEEENS4_IS6_EEEC1B8ue170006Ev, symObjAddr: 0x1E40, symBinAddr: 0x100002650, symSize: 0x20 }
  - { offsetInCU: 0x1F4A6, offset: 0x1F4A6, size: 0x8, addend: 0x0, symName: __ZNSt3__113unordered_mapINS_12basic_stringIcNS_11char_traitsIcEENS_9allocatorIcEEEEN10PolisCacos8InfoCacoENS_4hashIS6_EENS_8equal_toIS6_EENS4_INS_4pairIKS6_S8_EEEEEC2B8ue170006Ev, symObjAddr: 0x1E60, symBinAddr: 0x100002670, symSize: 0x20 }
  - { offsetInCU: 0x1F4D0, offset: 0x1F4D0, size: 0x8, addend: 0x0, symName: __ZNSt3__112__hash_tableINS_17__hash_value_typeINS_12basic_stringIcNS_11char_traitsIcEENS_9allocatorIcEEEEN10PolisCacos8InfoCacoEEENS_22__unordered_map_hasherIS7_SA_NS_4hashIS7_EENS_8equal_toIS7_EELb1EEENS_21__unordered_map_equalIS7_SA_SF_SD_Lb1EEENS5_ISA_EEEC1Ev, symObjAddr: 0x1E80, symBinAddr: 0x100002690, symSize: 0x20 }
  - { offsetInCU: 0x1F4FC, offset: 0x1F4FC, size: 0x8, addend: 0x0, symName: __ZNSt3__112__hash_tableINS_17__hash_value_typeINS_12basic_stringIcNS_11char_traitsIcEENS_9allocatorIcEEEEN10PolisCacos8InfoCacoEEENS_22__unordered_map_hasherIS7_SA_NS_4hashIS7_EENS_8equal_toIS7_EELb1EEENS_21__unordered_map_equalIS7_SA_SF_SD_Lb1EEENS5_ISA_EEEC2Ev, symObjAddr: 0x1EA0, symBinAddr: 0x1000026B0, symSize: 0x80 }
  - { offsetInCU: 0x1F528, offset: 0x1F528, size: 0x8, addend: 0x0, symName: __ZNSt3__110unique_ptrIA_PNS_16__hash_node_baseIPNS_11__hash_nodeINS_17__hash_value_typeINS_12basic_stringIcNS_11char_traitsIcEENS_9allocatorIcEEEEN10PolisCacos8InfoCacoEEEPvEEEENS_25__bucket_list_deallocatorINS7_ISH_EEEEEC1B8ue170006ILb1EvEEv, symObjAddr: 0x1F20, symBinAddr: 0x100002730, symSize: 0x20 }
  - { offsetInCU: 0x1F55D, offset: 0x1F55D, size: 0x8, addend: 0x0, symName: __ZNSt3__117__compressed_pairINS_16__hash_node_baseIPNS_11__hash_nodeINS_17__hash_value_typeINS_12basic_stringIcNS_11char_traitsIcEENS_9allocatorIcEEEEN10PolisCacos8InfoCacoEEEPvEEEENS7_ISE_EEEC1B8ue170006ILb1EvEEv, symObjAddr: 0x1F40, symBinAddr: 0x100002750, symSize: 0x20 }
  - { offsetInCU: 0x1F59E, offset: 0x1F59E, size: 0x8, addend: 0x0, symName: __ZNSt3__117__compressed_pairImNS_22__unordered_map_hasherINS_12basic_stringIcNS_11char_traitsIcEENS_9allocatorIcEEEENS_17__hash_value_typeIS7_N10PolisCacos8InfoCacoEEENS_4hashIS7_EENS_8equal_toIS7_EELb1EEEEC1B8ue170006IiNS_18__default_init_tagEEEOT_OT0_, symObjAddr: 0x1F60, symBinAddr: 0x100002770, symSize: 0x30 }
  - { offsetInCU: 0x1F5FC, offset: 0x1F5FC, size: 0x8, addend: 0x0, symName: __ZNSt3__117__compressed_pairIfNS_21__unordered_map_equalINS_12basic_stringIcNS_11char_traitsIcEENS_9allocatorIcEEEENS_17__hash_value_typeIS7_N10PolisCacos8InfoCacoEEENS_8equal_toIS7_EENS_4hashIS7_EELb1EEEEC1B8ue170006IfNS_18__default_init_tagEEEOT_OT0_, symObjAddr: 0x1F90, symBinAddr: 0x1000027A0, symSize: 0x30 }
  - { offsetInCU: 0x1F654, offset: 0x1F654, size: 0x8, addend: 0x0, symName: __ZNSt3__110unique_ptrIA_PNS_16__hash_node_baseIPNS_11__hash_nodeINS_17__hash_value_typeINS_12basic_stringIcNS_11char_traitsIcEENS_9allocatorIcEEEEN10PolisCacos8InfoCacoEEEPvEEEENS_25__bucket_list_deallocatorINS7_ISH_EEEEEC2B8ue170006ILb1EvEEv, symObjAddr: 0x1FC0, symBinAddr: 0x1000027D0, symSize: 0x30 }
  - { offsetInCU: 0x1F68F, offset: 0x1F68F, size: 0x8, addend: 0x0, symName: __ZNSt3__117__compressed_pairIPPNS_16__hash_node_baseIPNS_11__hash_nodeINS_17__hash_value_typeINS_12basic_stringIcNS_11char_traitsIcEENS_9allocatorIcEEEEN10PolisCacos8InfoCacoEEEPvEEEENS_25__bucket_list_deallocatorINS7_ISH_EEEEEC1B8ue170006INS_16__value_init_tagESO_EEOT_OT0_, symObjAddr: 0x1FF0, symBinAddr: 0x100002800, symSize: 0x30 }
  - { offsetInCU: 0x1F6E7, offset: 0x1F6E7, size: 0x8, addend: 0x0, symName: __ZNSt3__117__compressed_pairIPPNS_16__hash_node_baseIPNS_11__hash_nodeINS_17__hash_value_typeINS_12basic_stringIcNS_11char_traitsIcEENS_9allocatorIcEEEEN10PolisCacos8InfoCacoEEEPvEEEENS_25__bucket_list_deallocatorINS7_ISH_EEEEEC2B8ue170006INS_16__value_init_tagESO_EEOT_OT0_, symObjAddr: 0x2020, symBinAddr: 0x100002830, symSize: 0x40 }
  - { offsetInCU: 0x1F73F, offset: 0x1F73F, size: 0x8, addend: 0x0, symName: __ZNSt3__122__compressed_pair_elemIPPNS_16__hash_node_baseIPNS_11__hash_nodeINS_17__hash_value_typeINS_12basic_stringIcNS_11char_traitsIcEENS_9allocatorIcEEEEN10PolisCacos8InfoCacoEEEPvEEEELi0ELb0EEC2B8ue170006ENS_16__value_init_tagE, symObjAddr: 0x2060, symBinAddr: 0x100002870, symSize: 0x20 }
  - { offsetInCU: 0x1F774, offset: 0x1F774, size: 0x8, addend: 0x0, symName: __ZNSt3__122__compressed_pair_elemINS_25__bucket_list_deallocatorINS_9allocatorIPNS_16__hash_node_baseIPNS_11__hash_nodeINS_17__hash_value_typeINS_12basic_stringIcNS_11char_traitsIcEENS2_IcEEEEN10PolisCacos8InfoCacoEEEPvEEEEEEEELi1ELb0EEC2B8ue170006ENS_16__value_init_tagE, symObjAddr: 0x2080, symBinAddr: 0x100002890, symSize: 0x20 }
  - { offsetInCU: 0x1F7A9, offset: 0x1F7A9, size: 0x8, addend: 0x0, symName: __ZNSt3__125__bucket_list_deallocatorINS_9allocatorIPNS_16__hash_node_baseIPNS_11__hash_nodeINS_17__hash_value_typeINS_12basic_stringIcNS_11char_traitsIcEENS1_IcEEEEN10PolisCacos8InfoCacoEEEPvEEEEEEEC1B8ue170006Ev, symObjAddr: 0x20A0, symBinAddr: 0x1000028B0, symSize: 0x20 }
  - { offsetInCU: 0x1F7D3, offset: 0x1F7D3, size: 0x8, addend: 0x0, symName: __ZNSt3__125__bucket_list_deallocatorINS_9allocatorIPNS_16__hash_node_baseIPNS_11__hash_nodeINS_17__hash_value_typeINS_12basic_stringIcNS_11char_traitsIcEENS1_IcEEEEN10PolisCacos8InfoCacoEEEPvEEEEEEEC2B8ue170006Ev, symObjAddr: 0x20C0, symBinAddr: 0x1000028D0, symSize: 0x40 }
  - { offsetInCU: 0x1F7FD, offset: 0x1F7FD, size: 0x8, addend: 0x0, symName: __ZNSt3__117__compressed_pairImNS_9allocatorIPNS_16__hash_node_baseIPNS_11__hash_nodeINS_17__hash_value_typeINS_12basic_stringIcNS_11char_traitsIcEENS1_IcEEEEN10PolisCacos8InfoCacoEEEPvEEEEEEEC1B8ue170006IiNS_18__default_init_tagEEEOT_OT0_, symObjAddr: 0x2100, symBinAddr: 0x100002910, symSize: 0x30 }
  - { offsetInCU: 0x1F855, offset: 0x1F855, size: 0x8, addend: 0x0, symName: __ZNSt3__117__compressed_pairImNS_9allocatorIPNS_16__hash_node_baseIPNS_11__hash_nodeINS_17__hash_value_typeINS_12basic_stringIcNS_11char_traitsIcEENS1_IcEEEEN10PolisCacos8InfoCacoEEEPvEEEEEEEC2B8ue170006IiNS_18__default_init_tagEEEOT_OT0_, symObjAddr: 0x2130, symBinAddr: 0x100002940, symSize: 0x40 }
  - { offsetInCU: 0x1F8AD, offset: 0x1F8AD, size: 0x8, addend: 0x0, symName: __ZNSt3__122__compressed_pair_elemImLi0ELb0EEC2B8ue170006IivEEOT_, symObjAddr: 0x2170, symBinAddr: 0x100002980, symSize: 0x20 }
  - { offsetInCU: 0x1F8EF, offset: 0x1F8EF, size: 0x8, addend: 0x0, symName: __ZNSt3__122__compressed_pair_elemINS_9allocatorIPNS_16__hash_node_baseIPNS_11__hash_nodeINS_17__hash_value_typeINS_12basic_stringIcNS_11char_traitsIcEENS1_IcEEEEN10PolisCacos8InfoCacoEEEPvEEEEEELi1ELb1EEC2B8ue170006ENS_18__default_init_tagE, symObjAddr: 0x2190, symBinAddr: 0x1000029A0, symSize: 0x20 }
  - { offsetInCU: 0x1F924, offset: 0x1F924, size: 0x8, addend: 0x0, symName: __ZNSt3__19allocatorIPNS_16__hash_node_baseIPNS_11__hash_nodeINS_17__hash_value_typeINS_12basic_stringIcNS_11char_traitsIcEENS0_IcEEEEN10PolisCacos8InfoCacoEEEPvEEEEEC2B8ue170006Ev, symObjAddr: 0x21B0, symBinAddr: 0x1000029C0, symSize: 0x20 }
  - { offsetInCU: 0x1F94E, offset: 0x1F94E, size: 0x8, addend: 0x0, symName: __ZNSt3__116__non_trivial_ifILb1ENS_9allocatorIPNS_16__hash_node_baseIPNS_11__hash_nodeINS_17__hash_value_typeINS_12basic_stringIcNS_11char_traitsIcEENS1_IcEEEEN10PolisCacos8InfoCacoEEEPvEEEEEEEC2B8ue170006Ev, symObjAddr: 0x21D0, symBinAddr: 0x1000029E0, symSize: 0x10 }
  - { offsetInCU: 0x1F978, offset: 0x1F978, size: 0x8, addend: 0x0, symName: __ZNSt3__117__compressed_pairINS_16__hash_node_baseIPNS_11__hash_nodeINS_17__hash_value_typeINS_12basic_stringIcNS_11char_traitsIcEENS_9allocatorIcEEEEN10PolisCacos8InfoCacoEEEPvEEEENS7_ISE_EEEC2B8ue170006ILb1EvEEv, symObjAddr: 0x21E0, symBinAddr: 0x1000029F0, symSize: 0x30 }
  - { offsetInCU: 0x1F9AD, offset: 0x1F9AD, size: 0x8, addend: 0x0, symName: __ZNSt3__122__compressed_pair_elemINS_16__hash_node_baseIPNS_11__hash_nodeINS_17__hash_value_typeINS_12basic_stringIcNS_11char_traitsIcEENS_9allocatorIcEEEEN10PolisCacos8InfoCacoEEEPvEEEELi0ELb0EEC2B8ue170006ENS_16__value_init_tagE, symObjAddr: 0x2210, symBinAddr: 0x100002A20, symSize: 0x20 }
  - { offsetInCU: 0x1F9E2, offset: 0x1F9E2, size: 0x8, addend: 0x0, symName: __ZNSt3__122__compressed_pair_elemINS_9allocatorINS_11__hash_nodeINS_17__hash_value_typeINS_12basic_stringIcNS_11char_traitsIcEENS1_IcEEEEN10PolisCacos8InfoCacoEEEPvEEEELi1ELb1EEC2B8ue170006ENS_16__value_init_tagE, symObjAddr: 0x2230, symBinAddr: 0x100002A40, symSize: 0x20 }
  - { offsetInCU: 0x1FA17, offset: 0x1FA17, size: 0x8, addend: 0x0, symName: __ZNSt3__116__hash_node_baseIPNS_11__hash_nodeINS_17__hash_value_typeINS_12basic_stringIcNS_11char_traitsIcEENS_9allocatorIcEEEEN10PolisCacos8InfoCacoEEEPvEEEC1B8ue170006Ev, symObjAddr: 0x2250, symBinAddr: 0x100002A60, symSize: 0x20 }
  - { offsetInCU: 0x1FA41, offset: 0x1FA41, size: 0x8, addend: 0x0, symName: __ZNSt3__116__hash_node_baseIPNS_11__hash_nodeINS_17__hash_value_typeINS_12basic_stringIcNS_11char_traitsIcEENS_9allocatorIcEEEEN10PolisCacos8InfoCacoEEEPvEEEC2B8ue170006Ev, symObjAddr: 0x2270, symBinAddr: 0x100002A80, symSize: 0x20 }
  - { offsetInCU: 0x1FA6B, offset: 0x1FA6B, size: 0x8, addend: 0x0, symName: __ZNSt3__19allocatorINS_11__hash_nodeINS_17__hash_value_typeINS_12basic_stringIcNS_11char_traitsIcEENS0_IcEEEEN10PolisCacos8InfoCacoEEEPvEEEC2B8ue170006Ev, symObjAddr: 0x2290, symBinAddr: 0x100002AA0, symSize: 0x20 }
  - { offsetInCU: 0x1FA95, offset: 0x1FA95, size: 0x8, addend: 0x0, symName: __ZNSt3__116__non_trivial_ifILb1ENS_9allocatorINS_11__hash_nodeINS_17__hash_value_typeINS_12basic_stringIcNS_11char_traitsIcEENS1_IcEEEEN10PolisCacos8InfoCacoEEEPvEEEEEC2B8ue170006Ev, symObjAddr: 0x22B0, symBinAddr: 0x100002AC0, symSize: 0x10 }
  - { offsetInCU: 0x1FABF, offset: 0x1FABF, size: 0x8, addend: 0x0, symName: __ZNSt3__117__compressed_pairImNS_22__unordered_map_hasherINS_12basic_stringIcNS_11char_traitsIcEENS_9allocatorIcEEEENS_17__hash_value_typeIS7_N10PolisCacos8InfoCacoEEENS_4hashIS7_EENS_8equal_toIS7_EELb1EEEEC2B8ue170006IiNS_18__default_init_tagEEEOT_OT0_, symObjAddr: 0x22C0, symBinAddr: 0x100002AD0, symSize: 0x40 }
  - { offsetInCU: 0x1FB17, offset: 0x1FB17, size: 0x8, addend: 0x0, symName: __ZNSt3__122__compressed_pair_elemINS_22__unordered_map_hasherINS_12basic_stringIcNS_11char_traitsIcEENS_9allocatorIcEEEENS_17__hash_value_typeIS7_N10PolisCacos8InfoCacoEEENS_4hashIS7_EENS_8equal_toIS7_EELb1EEELi1ELb1EEC2B8ue170006ENS_18__default_init_tagE, symObjAddr: 0x2300, symBinAddr: 0x100002B10, symSize: 0x20 }
  - { offsetInCU: 0x1FB4C, offset: 0x1FB4C, size: 0x8, addend: 0x0, symName: __ZNSt3__122__unordered_map_hasherINS_12basic_stringIcNS_11char_traitsIcEENS_9allocatorIcEEEENS_17__hash_value_typeIS6_N10PolisCacos8InfoCacoEEENS_4hashIS6_EENS_8equal_toIS6_EELb1EEC2B8ue170006Ev, symObjAddr: 0x2320, symBinAddr: 0x100002B30, symSize: 0x10 }
  - { offsetInCU: 0x1FB76, offset: 0x1FB76, size: 0x8, addend: 0x0, symName: __ZNSt3__117__compressed_pairIfNS_21__unordered_map_equalINS_12basic_stringIcNS_11char_traitsIcEENS_9allocatorIcEEEENS_17__hash_value_typeIS7_N10PolisCacos8InfoCacoEEENS_8equal_toIS7_EENS_4hashIS7_EELb1EEEEC2B8ue170006IfNS_18__default_init_tagEEEOT_OT0_, symObjAddr: 0x2330, symBinAddr: 0x100002B40, symSize: 0x40 }
  - { offsetInCU: 0x1FBCE, offset: 0x1FBCE, size: 0x8, addend: 0x0, symName: __ZNSt3__122__compressed_pair_elemIfLi0ELb0EEC2B8ue170006IfvEEOT_, symObjAddr: 0x2370, symBinAddr: 0x100002B80, symSize: 0x20 }
  - { offsetInCU: 0x1FC10, offset: 0x1FC10, size: 0x8, addend: 0x0, symName: __ZNSt3__122__compressed_pair_elemINS_21__unordered_map_equalINS_12basic_stringIcNS_11char_traitsIcEENS_9allocatorIcEEEENS_17__hash_value_typeIS7_N10PolisCacos8InfoCacoEEENS_8equal_toIS7_EENS_4hashIS7_EELb1EEELi1ELb1EEC2B8ue170006ENS_18__default_init_tagE, symObjAddr: 0x2390, symBinAddr: 0x100002BA0, symSize: 0x20 }
  - { offsetInCU: 0x1FC45, offset: 0x1FC45, size: 0x8, addend: 0x0, symName: __ZNSt3__121__unordered_map_equalINS_12basic_stringIcNS_11char_traitsIcEENS_9allocatorIcEEEENS_17__hash_value_typeIS6_N10PolisCacos8InfoCacoEEENS_8equal_toIS6_EENS_4hashIS6_EELb1EEC2B8ue170006Ev, symObjAddr: 0x23B0, symBinAddr: 0x100002BC0, symSize: 0x10 }
  - { offsetInCU: 0x1FC6F, offset: 0x1FC6F, size: 0x8, addend: 0x0, symName: __ZNSt3__113unordered_mapINS_12basic_stringIcNS_11char_traitsIcEENS_9allocatorIcEEEENS_3mapIiS6_NS_4lessIiEENS4_INS_4pairIKiS6_EEEEEENS_4hashIS6_EENS_8equal_toIS6_EENS4_INSA_IKS6_SE_EEEEEC2B8ue170006Ev, symObjAddr: 0x23C0, symBinAddr: 0x100002BD0, symSize: 0x20 }
  - { offsetInCU: 0x1FC99, offset: 0x1FC99, size: 0x8, addend: 0x0, symName: __ZNSt3__112__hash_tableINS_17__hash_value_typeINS_12basic_stringIcNS_11char_traitsIcEENS_9allocatorIcEEEENS_3mapIiS7_NS_4lessIiEENS5_INS_4pairIKiS7_EEEEEEEENS_22__unordered_map_hasherIS7_SG_NS_4hashIS7_EENS_8equal_toIS7_EELb1EEENS_21__unordered_map_equalIS7_SG_SL_SJ_Lb1EEENS5_ISG_EEEC1Ev, symObjAddr: 0x23E0, symBinAddr: 0x100002BF0, symSize: 0x20 }
  - { offsetInCU: 0x1FCC5, offset: 0x1FCC5, size: 0x8, addend: 0x0, symName: __ZNSt3__112__hash_tableINS_17__hash_value_typeINS_12basic_stringIcNS_11char_traitsIcEENS_9allocatorIcEEEENS_3mapIiS7_NS_4lessIiEENS5_INS_4pairIKiS7_EEEEEEEENS_22__unordered_map_hasherIS7_SG_NS_4hashIS7_EENS_8equal_toIS7_EELb1EEENS_21__unordered_map_equalIS7_SG_SL_SJ_Lb1EEENS5_ISG_EEEC2Ev, symObjAddr: 0x2400, symBinAddr: 0x100002C10, symSize: 0x80 }
  - { offsetInCU: 0x1FCF1, offset: 0x1FCF1, size: 0x8, addend: 0x0, symName: __ZNSt3__110unique_ptrIA_PNS_16__hash_node_baseIPNS_11__hash_nodeINS_17__hash_value_typeINS_12basic_stringIcNS_11char_traitsIcEENS_9allocatorIcEEEENS_3mapIiS9_NS_4lessIiEENS7_INS_4pairIKiS9_EEEEEEEEPvEEEENS_25__bucket_list_deallocatorINS7_ISN_EEEEEC1B8ue170006ILb1EvEEv, symObjAddr: 0x2480, symBinAddr: 0x100002C90, symSize: 0x20 }
  - { offsetInCU: 0x1FD26, offset: 0x1FD26, size: 0x8, addend: 0x0, symName: __ZNSt3__117__compressed_pairINS_16__hash_node_baseIPNS_11__hash_nodeINS_17__hash_value_typeINS_12basic_stringIcNS_11char_traitsIcEENS_9allocatorIcEEEENS_3mapIiS9_NS_4lessIiEENS7_INS_4pairIKiS9_EEEEEEEEPvEEEENS7_ISK_EEEC1B8ue170006ILb1EvEEv, symObjAddr: 0x24A0, symBinAddr: 0x100002CB0, symSize: 0x20 }
  - { offsetInCU: 0x1FD5B, offset: 0x1FD5B, size: 0x8, addend: 0x0, symName: __ZNSt3__117__compressed_pairImNS_22__unordered_map_hasherINS_12basic_stringIcNS_11char_traitsIcEENS_9allocatorIcEEEENS_17__hash_value_typeIS7_NS_3mapIiS7_NS_4lessIiEENS5_INS_4pairIKiS7_EEEEEEEENS_4hashIS7_EENS_8equal_toIS7_EELb1EEEEC1B8ue170006IiNS_18__default_init_tagEEEOT_OT0_, symObjAddr: 0x24C0, symBinAddr: 0x100002CD0, symSize: 0x30 }
  - { offsetInCU: 0x1FDB3, offset: 0x1FDB3, size: 0x8, addend: 0x0, symName: __ZNSt3__117__compressed_pairIfNS_21__unordered_map_equalINS_12basic_stringIcNS_11char_traitsIcEENS_9allocatorIcEEEENS_17__hash_value_typeIS7_NS_3mapIiS7_NS_4lessIiEENS5_INS_4pairIKiS7_EEEEEEEENS_8equal_toIS7_EENS_4hashIS7_EELb1EEEEC1B8ue170006IfNS_18__default_init_tagEEEOT_OT0_, symObjAddr: 0x24F0, symBinAddr: 0x100002D00, symSize: 0x30 }
  - { offsetInCU: 0x1FE0B, offset: 0x1FE0B, size: 0x8, addend: 0x0, symName: __ZNSt3__110unique_ptrIA_PNS_16__hash_node_baseIPNS_11__hash_nodeINS_17__hash_value_typeINS_12basic_stringIcNS_11char_traitsIcEENS_9allocatorIcEEEENS_3mapIiS9_NS_4lessIiEENS7_INS_4pairIKiS9_EEEEEEEEPvEEEENS_25__bucket_list_deallocatorINS7_ISN_EEEEEC2B8ue170006ILb1EvEEv, symObjAddr: 0x2520, symBinAddr: 0x100002D30, symSize: 0x30 }
  - { offsetInCU: 0x1FE40, offset: 0x1FE40, size: 0x8, addend: 0x0, symName: __ZNSt3__117__compressed_pairIPPNS_16__hash_node_baseIPNS_11__hash_nodeINS_17__hash_value_typeINS_12basic_stringIcNS_11char_traitsIcEENS_9allocatorIcEEEENS_3mapIiS9_NS_4lessIiEENS7_INS_4pairIKiS9_EEEEEEEEPvEEEENS_25__bucket_list_deallocatorINS7_ISN_EEEEEC1B8ue170006INS_16__value_init_tagESU_EEOT_OT0_, symObjAddr: 0x2550, symBinAddr: 0x100002D60, symSize: 0x30 }
  - { offsetInCU: 0x1FE98, offset: 0x1FE98, size: 0x8, addend: 0x0, symName: __ZNSt3__117__compressed_pairIPPNS_16__hash_node_baseIPNS_11__hash_nodeINS_17__hash_value_typeINS_12basic_stringIcNS_11char_traitsIcEENS_9allocatorIcEEEENS_3mapIiS9_NS_4lessIiEENS7_INS_4pairIKiS9_EEEEEEEEPvEEEENS_25__bucket_list_deallocatorINS7_ISN_EEEEEC2B8ue170006INS_16__value_init_tagESU_EEOT_OT0_, symObjAddr: 0x2580, symBinAddr: 0x100002D90, symSize: 0x40 }
  - { offsetInCU: 0x1FEF0, offset: 0x1FEF0, size: 0x8, addend: 0x0, symName: __ZNSt3__122__compressed_pair_elemIPPNS_16__hash_node_baseIPNS_11__hash_nodeINS_17__hash_value_typeINS_12basic_stringIcNS_11char_traitsIcEENS_9allocatorIcEEEENS_3mapIiS9_NS_4lessIiEENS7_INS_4pairIKiS9_EEEEEEEEPvEEEELi0ELb0EEC2B8ue170006ENS_16__value_init_tagE, symObjAddr: 0x25C0, symBinAddr: 0x100002DD0, symSize: 0x20 }
  - { offsetInCU: 0x1FF25, offset: 0x1FF25, size: 0x8, addend: 0x0, symName: __ZNSt3__122__compressed_pair_elemINS_25__bucket_list_deallocatorINS_9allocatorIPNS_16__hash_node_baseIPNS_11__hash_nodeINS_17__hash_value_typeINS_12basic_stringIcNS_11char_traitsIcEENS2_IcEEEENS_3mapIiSA_NS_4lessIiEENS2_INS_4pairIKiSA_EEEEEEEEPvEEEEEEEELi1ELb0EEC2B8ue170006ENS_16__value_init_tagE, symObjAddr: 0x25E0, symBinAddr: 0x100002DF0, symSize: 0x20 }
  - { offsetInCU: 0x1FF5A, offset: 0x1FF5A, size: 0x8, addend: 0x0, symName: __ZNSt3__125__bucket_list_deallocatorINS_9allocatorIPNS_16__hash_node_baseIPNS_11__hash_nodeINS_17__hash_value_typeINS_12basic_stringIcNS_11char_traitsIcEENS1_IcEEEENS_3mapIiS9_NS_4lessIiEENS1_INS_4pairIKiS9_EEEEEEEEPvEEEEEEEC1B8ue170006Ev, symObjAddr: 0x2600, symBinAddr: 0x100002E10, symSize: 0x20 }
  - { offsetInCU: 0x1FF84, offset: 0x1FF84, size: 0x8, addend: 0x0, symName: __ZNSt3__125__bucket_list_deallocatorINS_9allocatorIPNS_16__hash_node_baseIPNS_11__hash_nodeINS_17__hash_value_typeINS_12basic_stringIcNS_11char_traitsIcEENS1_IcEEEENS_3mapIiS9_NS_4lessIiEENS1_INS_4pairIKiS9_EEEEEEEEPvEEEEEEEC2B8ue170006Ev, symObjAddr: 0x2620, symBinAddr: 0x100002E30, symSize: 0x40 }
  - { offsetInCU: 0x1FFAE, offset: 0x1FFAE, size: 0x8, addend: 0x0, symName: __ZNSt3__117__compressed_pairImNS_9allocatorIPNS_16__hash_node_baseIPNS_11__hash_nodeINS_17__hash_value_typeINS_12basic_stringIcNS_11char_traitsIcEENS1_IcEEEENS_3mapIiS9_NS_4lessIiEENS1_INS_4pairIKiS9_EEEEEEEEPvEEEEEEEC1B8ue170006IiNS_18__default_init_tagEEEOT_OT0_, symObjAddr: 0x2660, symBinAddr: 0x100002E70, symSize: 0x30 }
  - { offsetInCU: 0x20006, offset: 0x20006, size: 0x8, addend: 0x0, symName: __ZNSt3__117__compressed_pairImNS_9allocatorIPNS_16__hash_node_baseIPNS_11__hash_nodeINS_17__hash_value_typeINS_12basic_stringIcNS_11char_traitsIcEENS1_IcEEEENS_3mapIiS9_NS_4lessIiEENS1_INS_4pairIKiS9_EEEEEEEEPvEEEEEEEC2B8ue170006IiNS_18__default_init_tagEEEOT_OT0_, symObjAddr: 0x2690, symBinAddr: 0x100002EA0, symSize: 0x40 }
  - { offsetInCU: 0x2005E, offset: 0x2005E, size: 0x8, addend: 0x0, symName: __ZNSt3__122__compressed_pair_elemINS_9allocatorIPNS_16__hash_node_baseIPNS_11__hash_nodeINS_17__hash_value_typeINS_12basic_stringIcNS_11char_traitsIcEENS1_IcEEEENS_3mapIiS9_NS_4lessIiEENS1_INS_4pairIKiS9_EEEEEEEEPvEEEEEELi1ELb1EEC2B8ue170006ENS_18__default_init_tagE, symObjAddr: 0x26D0, symBinAddr: 0x100002EE0, symSize: 0x20 }
  - { offsetInCU: 0x20093, offset: 0x20093, size: 0x8, addend: 0x0, symName: __ZNSt3__19allocatorIPNS_16__hash_node_baseIPNS_11__hash_nodeINS_17__hash_value_typeINS_12basic_stringIcNS_11char_traitsIcEENS0_IcEEEENS_3mapIiS8_NS_4lessIiEENS0_INS_4pairIKiS8_EEEEEEEEPvEEEEEC2B8ue170006Ev, symObjAddr: 0x26F0, symBinAddr: 0x100002F00, symSize: 0x20 }
  - { offsetInCU: 0x200BD, offset: 0x200BD, size: 0x8, addend: 0x0, symName: __ZNSt3__116__non_trivial_ifILb1ENS_9allocatorIPNS_16__hash_node_baseIPNS_11__hash_nodeINS_17__hash_value_typeINS_12basic_stringIcNS_11char_traitsIcEENS1_IcEEEENS_3mapIiS9_NS_4lessIiEENS1_INS_4pairIKiS9_EEEEEEEEPvEEEEEEEC2B8ue170006Ev, symObjAddr: 0x2710, symBinAddr: 0x100002F20, symSize: 0x10 }
  - { offsetInCU: 0x200E7, offset: 0x200E7, size: 0x8, addend: 0x0, symName: __ZNSt3__117__compressed_pairINS_16__hash_node_baseIPNS_11__hash_nodeINS_17__hash_value_typeINS_12basic_stringIcNS_11char_traitsIcEENS_9allocatorIcEEEENS_3mapIiS9_NS_4lessIiEENS7_INS_4pairIKiS9_EEEEEEEEPvEEEENS7_ISK_EEEC2B8ue170006ILb1EvEEv, symObjAddr: 0x2720, symBinAddr: 0x100002F30, symSize: 0x30 }
  - { offsetInCU: 0x2011C, offset: 0x2011C, size: 0x8, addend: 0x0, symName: __ZNSt3__122__compressed_pair_elemINS_16__hash_node_baseIPNS_11__hash_nodeINS_17__hash_value_typeINS_12basic_stringIcNS_11char_traitsIcEENS_9allocatorIcEEEENS_3mapIiS9_NS_4lessIiEENS7_INS_4pairIKiS9_EEEEEEEEPvEEEELi0ELb0EEC2B8ue170006ENS_16__value_init_tagE, symObjAddr: 0x2750, symBinAddr: 0x100002F60, symSize: 0x20 }
  - { offsetInCU: 0x20151, offset: 0x20151, size: 0x8, addend: 0x0, symName: __ZNSt3__122__compressed_pair_elemINS_9allocatorINS_11__hash_nodeINS_17__hash_value_typeINS_12basic_stringIcNS_11char_traitsIcEENS1_IcEEEENS_3mapIiS8_NS_4lessIiEENS1_INS_4pairIKiS8_EEEEEEEEPvEEEELi1ELb1EEC2B8ue170006ENS_16__value_init_tagE, symObjAddr: 0x2770, symBinAddr: 0x100002F80, symSize: 0x20 }
  - { offsetInCU: 0x20186, offset: 0x20186, size: 0x8, addend: 0x0, symName: __ZNSt3__116__hash_node_baseIPNS_11__hash_nodeINS_17__hash_value_typeINS_12basic_stringIcNS_11char_traitsIcEENS_9allocatorIcEEEENS_3mapIiS8_NS_4lessIiEENS6_INS_4pairIKiS8_EEEEEEEEPvEEEC1B8ue170006Ev, symObjAddr: 0x2790, symBinAddr: 0x100002FA0, symSize: 0x20 }
  - { offsetInCU: 0x201B0, offset: 0x201B0, size: 0x8, addend: 0x0, symName: __ZNSt3__116__hash_node_baseIPNS_11__hash_nodeINS_17__hash_value_typeINS_12basic_stringIcNS_11char_traitsIcEENS_9allocatorIcEEEENS_3mapIiS8_NS_4lessIiEENS6_INS_4pairIKiS8_EEEEEEEEPvEEEC2B8ue170006Ev, symObjAddr: 0x27B0, symBinAddr: 0x100002FC0, symSize: 0x20 }
  - { offsetInCU: 0x201DA, offset: 0x201DA, size: 0x8, addend: 0x0, symName: __ZNSt3__19allocatorINS_11__hash_nodeINS_17__hash_value_typeINS_12basic_stringIcNS_11char_traitsIcEENS0_IcEEEENS_3mapIiS7_NS_4lessIiEENS0_INS_4pairIKiS7_EEEEEEEEPvEEEC2B8ue170006Ev, symObjAddr: 0x27D0, symBinAddr: 0x100002FE0, symSize: 0x20 }
  - { offsetInCU: 0x20204, offset: 0x20204, size: 0x8, addend: 0x0, symName: __ZNSt3__116__non_trivial_ifILb1ENS_9allocatorINS_11__hash_nodeINS_17__hash_value_typeINS_12basic_stringIcNS_11char_traitsIcEENS1_IcEEEENS_3mapIiS8_NS_4lessIiEENS1_INS_4pairIKiS8_EEEEEEEEPvEEEEEC2B8ue170006Ev, symObjAddr: 0x27F0, symBinAddr: 0x100003000, symSize: 0x10 }
  - { offsetInCU: 0x2022E, offset: 0x2022E, size: 0x8, addend: 0x0, symName: __ZNSt3__117__compressed_pairImNS_22__unordered_map_hasherINS_12basic_stringIcNS_11char_traitsIcEENS_9allocatorIcEEEENS_17__hash_value_typeIS7_NS_3mapIiS7_NS_4lessIiEENS5_INS_4pairIKiS7_EEEEEEEENS_4hashIS7_EENS_8equal_toIS7_EELb1EEEEC2B8ue170006IiNS_18__default_init_tagEEEOT_OT0_, symObjAddr: 0x2800, symBinAddr: 0x100003010, symSize: 0x40 }
  - { offsetInCU: 0x20286, offset: 0x20286, size: 0x8, addend: 0x0, symName: __ZNSt3__122__compressed_pair_elemINS_22__unordered_map_hasherINS_12basic_stringIcNS_11char_traitsIcEENS_9allocatorIcEEEENS_17__hash_value_typeIS7_NS_3mapIiS7_NS_4lessIiEENS5_INS_4pairIKiS7_EEEEEEEENS_4hashIS7_EENS_8equal_toIS7_EELb1EEELi1ELb1EEC2B8ue170006ENS_18__default_init_tagE, symObjAddr: 0x2840, symBinAddr: 0x100003050, symSize: 0x20 }
  - { offsetInCU: 0x202BB, offset: 0x202BB, size: 0x8, addend: 0x0, symName: __ZNSt3__122__unordered_map_hasherINS_12basic_stringIcNS_11char_traitsIcEENS_9allocatorIcEEEENS_17__hash_value_typeIS6_NS_3mapIiS6_NS_4lessIiEENS4_INS_4pairIKiS6_EEEEEEEENS_4hashIS6_EENS_8equal_toIS6_EELb1EEC2B8ue170006Ev, symObjAddr: 0x2860, symBinAddr: 0x100003070, symSize: 0x10 }
  - { offsetInCU: 0x202E5, offset: 0x202E5, size: 0x8, addend: 0x0, symName: __ZNSt3__117__compressed_pairIfNS_21__unordered_map_equalINS_12basic_stringIcNS_11char_traitsIcEENS_9allocatorIcEEEENS_17__hash_value_typeIS7_NS_3mapIiS7_NS_4lessIiEENS5_INS_4pairIKiS7_EEEEEEEENS_8equal_toIS7_EENS_4hashIS7_EELb1EEEEC2B8ue170006IfNS_18__default_init_tagEEEOT_OT0_, symObjAddr: 0x2870, symBinAddr: 0x100003080, symSize: 0x40 }
  - { offsetInCU: 0x2033D, offset: 0x2033D, size: 0x8, addend: 0x0, symName: __ZNSt3__122__compressed_pair_elemINS_21__unordered_map_equalINS_12basic_stringIcNS_11char_traitsIcEENS_9allocatorIcEEEENS_17__hash_value_typeIS7_NS_3mapIiS7_NS_4lessIiEENS5_INS_4pairIKiS7_EEEEEEEENS_8equal_toIS7_EENS_4hashIS7_EELb1EEELi1ELb1EEC2B8ue170006ENS_18__default_init_tagE, symObjAddr: 0x28B0, symBinAddr: 0x1000030C0, symSize: 0x20 }
  - { offsetInCU: 0x20372, offset: 0x20372, size: 0x8, addend: 0x0, symName: __ZNSt3__121__unordered_map_equalINS_12basic_stringIcNS_11char_traitsIcEENS_9allocatorIcEEEENS_17__hash_value_typeIS6_NS_3mapIiS6_NS_4lessIiEENS4_INS_4pairIKiS6_EEEEEEEENS_8equal_toIS6_EENS_4hashIS6_EELb1EEC2B8ue170006Ev, symObjAddr: 0x28D0, symBinAddr: 0x1000030E0, symSize: 0x10 }
  - { offsetInCU: 0x2039C, offset: 0x2039C, size: 0x8, addend: 0x0, symName: __ZNSt3__14listINS_12basic_stringIcNS_11char_traitsIcEENS_9allocatorIcEEEENS4_IS6_EEEC2B8ue170006Ev, symObjAddr: 0x28E0, symBinAddr: 0x1000030F0, symSize: 0x20 }
  - { offsetInCU: 0x203C6, offset: 0x203C6, size: 0x8, addend: 0x0, symName: __ZNSt3__110__list_impINS_12basic_stringIcNS_11char_traitsIcEENS_9allocatorIcEEEENS4_IS6_EEEC2Ev, symObjAddr: 0x2900, symBinAddr: 0x100003110, symSize: 0x50 }
  - { offsetInCU: 0x203F2, offset: 0x203F2, size: 0x8, addend: 0x0, symName: __ZNSt3__116__list_node_baseINS_12basic_stringIcNS_11char_traitsIcEENS_9allocatorIcEEEEPvEC1B8ue170006Ev, symObjAddr: 0x2950, symBinAddr: 0x100003160, symSize: 0x20 }
  - { offsetInCU: 0x2041C, offset: 0x2041C, size: 0x8, addend: 0x0, symName: __ZNSt3__117__compressed_pairImNS_9allocatorINS_11__list_nodeINS_12basic_stringIcNS_11char_traitsIcEENS1_IcEEEEPvEEEEEC1B8ue170006IiNS_18__default_init_tagEEEOT_OT0_, symObjAddr: 0x2970, symBinAddr: 0x100003180, symSize: 0x30 }
  - { offsetInCU: 0x20474, offset: 0x20474, size: 0x8, addend: 0x0, symName: __ZNSt3__116__list_node_baseINS_12basic_stringIcNS_11char_traitsIcEENS_9allocatorIcEEEEPvEC2B8ue170006Ev, symObjAddr: 0x29A0, symBinAddr: 0x1000031B0, symSize: 0x50 }
  - { offsetInCU: 0x2049E, offset: 0x2049E, size: 0x8, addend: 0x0, symName: __ZNSt3__126__list_node_pointer_traitsINS_12basic_stringIcNS_11char_traitsIcEENS_9allocatorIcEEEEPvE26__unsafe_link_pointer_castB8ue170006EPNS_16__list_node_baseIS6_S7_EE, symObjAddr: 0x29F0, symBinAddr: 0x100003200, symSize: 0x10 }
  - { offsetInCU: 0x204C2, offset: 0x204C2, size: 0x8, addend: 0x0, symName: __ZNSt3__116__list_node_baseINS_12basic_stringIcNS_11char_traitsIcEENS_9allocatorIcEEEEPvE6__selfB8ue170006Ev, symObjAddr: 0x2A00, symBinAddr: 0x100003210, symSize: 0x20 }
  - { offsetInCU: 0x204EE, offset: 0x204EE, size: 0x8, addend: 0x0, symName: __ZNSt3__114pointer_traitsIPNS_16__list_node_baseINS_12basic_stringIcNS_11char_traitsIcEENS_9allocatorIcEEEEPvEEE10pointer_toB8ue170006ERS9_, symObjAddr: 0x2A20, symBinAddr: 0x100003230, symSize: 0x10 }
  - { offsetInCU: 0x20511, offset: 0x20511, size: 0x8, addend: 0x0, symName: __ZNSt3__117__compressed_pairImNS_9allocatorINS_11__list_nodeINS_12basic_stringIcNS_11char_traitsIcEENS1_IcEEEEPvEEEEEC2B8ue170006IiNS_18__default_init_tagEEEOT_OT0_, symObjAddr: 0x2A30, symBinAddr: 0x100003240, symSize: 0x40 }
  - { offsetInCU: 0x20569, offset: 0x20569, size: 0x8, addend: 0x0, symName: __ZNSt3__122__compressed_pair_elemINS_9allocatorINS_11__list_nodeINS_12basic_stringIcNS_11char_traitsIcEENS1_IcEEEEPvEEEELi1ELb1EEC2B8ue170006ENS_18__default_init_tagE, symObjAddr: 0x2A70, symBinAddr: 0x100003280, symSize: 0x20 }
  - { offsetInCU: 0x2059E, offset: 0x2059E, size: 0x8, addend: 0x0, symName: __ZNSt3__19allocatorINS_11__list_nodeINS_12basic_stringIcNS_11char_traitsIcEENS0_IcEEEEPvEEEC2B8ue170006Ev, symObjAddr: 0x2A90, symBinAddr: 0x1000032A0, symSize: 0x20 }
  - { offsetInCU: 0x205C8, offset: 0x205C8, size: 0x8, addend: 0x0, symName: __ZNSt3__116__non_trivial_ifILb1ENS_9allocatorINS_11__list_nodeINS_12basic_stringIcNS_11char_traitsIcEENS1_IcEEEEPvEEEEEC2B8ue170006Ev, symObjAddr: 0x2AB0, symBinAddr: 0x1000032C0, symSize: 0x10 }
  - { offsetInCU: 0x205F2, offset: 0x205F2, size: 0x8, addend: 0x0, symName: __ZNSt3__113unordered_mapINS_12basic_stringIcNS_11char_traitsIcEENS_9allocatorIcEEEEN10PolisCacos8InfoCacoENS_4hashIS6_EENS_8equal_toIS6_EENS4_INS_4pairIKS6_S8_EEEEE4findB8ue170006ERSE_, symObjAddr: 0x2AF0, symBinAddr: 0x100003300, symSize: 0x40 }
  - { offsetInCU: 0x20627, offset: 0x20627, size: 0x8, addend: 0x0, symName: __ZNSt3__113unordered_mapINS_12basic_stringIcNS_11char_traitsIcEENS_9allocatorIcEEEEN10PolisCacos8InfoCacoENS_4hashIS6_EENS_8equal_toIS6_EENS4_INS_4pairIKS6_S8_EEEEE3endB8ue170006Ev, symObjAddr: 0x2B30, symBinAddr: 0x100003340, symSize: 0x30 }
  - { offsetInCU: 0x2064D, offset: 0x2064D, size: 0x8, addend: 0x0, symName: __ZNSt16invalid_argumentC1B8ue170006EPKc, symObjAddr: 0x2B60, symBinAddr: 0x100003370, symSize: 0x30 }
  - { offsetInCU: 0x2068A, offset: 0x2068A, size: 0x8, addend: 0x0, symName: __ZN10PolisCacos8InfoCacoC1Ev, symObjAddr: 0x2B90, symBinAddr: 0x1000033A0, symSize: 0x20 }
  - { offsetInCU: 0x206B6, offset: 0x206B6, size: 0x8, addend: 0x0, symName: __ZNSt3__14listINS_12basic_stringIcNS_11char_traitsIcEENS_9allocatorIcEEEENS4_IS6_EEE3endB8ue170006Ev, symObjAddr: 0x2BB0, symBinAddr: 0x1000033C0, symSize: 0x30 }
  - { offsetInCU: 0x206DC, offset: 0x206DC, size: 0x8, addend: 0x0, symName: __ZNSt3__14listINS_12basic_stringIcNS_11char_traitsIcEENS_9allocatorIcEEEENS4_IS6_EEE9push_backERKS6_, symObjAddr: 0x2BE0, symBinAddr: 0x1000033F0, symSize: 0x100 }
  - { offsetInCU: 0x20731, offset: 0x20731, size: 0x8, addend: 0x0, symName: __ZNSt3__113unordered_mapINS_12basic_stringIcNS_11char_traitsIcEENS_9allocatorIcEEEEN10PolisCacos8InfoCacoENS_4hashIS6_EENS_8equal_toIS6_EENS4_INS_4pairIKS6_S8_EEEEE6insertB8ue170006EOSF_, symObjAddr: 0x2CE0, symBinAddr: 0x1000034F0, symSize: 0x40 }
  - { offsetInCU: 0x2076C, offset: 0x2076C, size: 0x8, addend: 0x0, symName: __ZNSt3__14pairIKNS_12basic_stringIcNS_11char_traitsIcEENS_9allocatorIcEEEEN10PolisCacos8InfoCacoEEC1B8ue170006IRS7_RS9_LPv0EEEOT_OT0_, symObjAddr: 0x2D20, symBinAddr: 0x100003530, symSize: 0x30 }
  - { offsetInCU: 0x207CA, offset: 0x207CA, size: 0x8, addend: 0x0, symName: __ZNSt3__14pairIKNS_12basic_stringIcNS_11char_traitsIcEENS_9allocatorIcEEEEN10PolisCacos8InfoCacoEED1Ev, symObjAddr: 0x2D50, symBinAddr: 0x100003560, symSize: 0x20 }
  - { offsetInCU: 0x207F6, offset: 0x207F6, size: 0x8, addend: 0x0, symName: __ZNSt3__113unordered_mapINS_12basic_stringIcNS_11char_traitsIcEENS_9allocatorIcEEEENS_3mapIiS6_NS_4lessIiEENS4_INS_4pairIKiS6_EEEEEENS_4hashIS6_EENS_8equal_toIS6_EENS4_INSA_IKS6_SE_EEEEEixERSJ_, symObjAddr: 0x2D70, symBinAddr: 0x100003580, symSize: 0x70 }
  - { offsetInCU: 0x2082D, offset: 0x2082D, size: 0x8, addend: 0x0, symName: __ZNSt3__13mapIiNS_12basic_stringIcNS_11char_traitsIcEENS_9allocatorIcEEEENS_4lessIiEENS4_INS_4pairIKiS6_EEEEEixERSA_, symObjAddr: 0x2DE0, symBinAddr: 0x1000035F0, symSize: 0x70 }
  - { offsetInCU: 0x20864, offset: 0x20864, size: 0x8, addend: 0x0, symName: __ZN10PolisCacos8InfoCacoD1Ev, symObjAddr: 0x2E50, symBinAddr: 0x100003660, symSize: 0x20 }
  - { offsetInCU: 0x20890, offset: 0x20890, size: 0x8, addend: 0x0, symName: __ZNSt3__112__hash_tableINS_17__hash_value_typeINS_12basic_stringIcNS_11char_traitsIcEENS_9allocatorIcEEEEN10PolisCacos8InfoCacoEEENS_22__unordered_map_hasherIS7_SA_NS_4hashIS7_EENS_8equal_toIS7_EELb1EEENS_21__unordered_map_equalIS7_SA_SF_SD_Lb1EEENS5_ISA_EEE4findIS7_EENS_15__hash_iteratorIPNS_11__hash_nodeISA_PvEEEERKT_, symObjAddr: 0x2ED0, symBinAddr: 0x1000036E0, symSize: 0x180 }
  - { offsetInCU: 0x2091A, offset: 0x2091A, size: 0x8, addend: 0x0, symName: __ZNSt3__119__hash_map_iteratorINS_15__hash_iteratorIPNS_11__hash_nodeINS_17__hash_value_typeINS_12basic_stringIcNS_11char_traitsIcEENS_9allocatorIcEEEEN10PolisCacos8InfoCacoEEEPvEEEEEC1B8ue170006ESG_, symObjAddr: 0x3050, symBinAddr: 0x100003860, symSize: 0x30 }
  - { offsetInCU: 0x20953, offset: 0x20953, size: 0x8, addend: 0x0, symName: __ZNSt3__112__hash_tableINS_17__hash_value_typeINS_12basic_stringIcNS_11char_traitsIcEENS_9allocatorIcEEEEN10PolisCacos8InfoCacoEEENS_22__unordered_map_hasherIS7_SA_NS_4hashIS7_EENS_8equal_toIS7_EELb1EEENS_21__unordered_map_equalIS7_SA_SF_SD_Lb1EEENS5_ISA_EEE13hash_functionB8ue170006Ev, symObjAddr: 0x3080, symBinAddr: 0x100003890, symSize: 0x20 }
  - { offsetInCU: 0x20979, offset: 0x20979, size: 0x8, addend: 0x0, symName: __ZNKSt3__122__unordered_map_hasherINS_12basic_stringIcNS_11char_traitsIcEENS_9allocatorIcEEEENS_17__hash_value_typeIS6_N10PolisCacos8InfoCacoEEENS_4hashIS6_EENS_8equal_toIS6_EELb1EEclB8ue170006ERKS6_, symObjAddr: 0x30A0, symBinAddr: 0x1000038B0, symSize: 0x30 }
  - { offsetInCU: 0x209AE, offset: 0x209AE, size: 0x8, addend: 0x0, symName: __ZNKSt3__112__hash_tableINS_17__hash_value_typeINS_12basic_stringIcNS_11char_traitsIcEENS_9allocatorIcEEEEN10PolisCacos8InfoCacoEEENS_22__unordered_map_hasherIS7_SA_NS_4hashIS7_EENS_8equal_toIS7_EELb1EEENS_21__unordered_map_equalIS7_SA_SF_SD_Lb1EEENS5_ISA_EEE12bucket_countB8ue170006Ev, symObjAddr: 0x30D0, symBinAddr: 0x1000038E0, symSize: 0x30 }
  - { offsetInCU: 0x209D4, offset: 0x209D4, size: 0x8, addend: 0x0, symName: __ZNKSt3__110unique_ptrIA_PNS_16__hash_node_baseIPNS_11__hash_nodeINS_17__hash_value_typeINS_12basic_stringIcNS_11char_traitsIcEENS_9allocatorIcEEEEN10PolisCacos8InfoCacoEEEPvEEEENS_25__bucket_list_deallocatorINS7_ISH_EEEEEixB8ue170006Em, symObjAddr: 0x3180, symBinAddr: 0x100003990, symSize: 0x30 }
  - { offsetInCU: 0x20A09, offset: 0x20A09, size: 0x8, addend: 0x0, symName: __ZNKSt3__116__hash_node_baseIPNS_11__hash_nodeINS_17__hash_value_typeINS_12basic_stringIcNS_11char_traitsIcEENS_9allocatorIcEEEEN10PolisCacos8InfoCacoEEEPvEEE6__hashB8ue170006Ev, symObjAddr: 0x31B0, symBinAddr: 0x1000039C0, symSize: 0x20 }
  - { offsetInCU: 0x20A2F, offset: 0x20A2F, size: 0x8, addend: 0x0, symName: __ZNSt3__112__hash_tableINS_17__hash_value_typeINS_12basic_stringIcNS_11char_traitsIcEENS_9allocatorIcEEEEN10PolisCacos8InfoCacoEEENS_22__unordered_map_hasherIS7_SA_NS_4hashIS7_EENS_8equal_toIS7_EELb1EEENS_21__unordered_map_equalIS7_SA_SF_SD_Lb1EEENS5_ISA_EEE6key_eqB8ue170006Ev, symObjAddr: 0x31D0, symBinAddr: 0x1000039E0, symSize: 0x20 }
  - { offsetInCU: 0x20A55, offset: 0x20A55, size: 0x8, addend: 0x0, symName: __ZNKSt3__121__unordered_map_equalINS_12basic_stringIcNS_11char_traitsIcEENS_9allocatorIcEEEENS_17__hash_value_typeIS6_N10PolisCacos8InfoCacoEEENS_8equal_toIS6_EENS_4hashIS6_EELb1EEclB8ue170006ERKSA_RKS6_, symObjAddr: 0x31F0, symBinAddr: 0x100003A00, symSize: 0x40 }
  - { offsetInCU: 0x20A99, offset: 0x20A99, size: 0x8, addend: 0x0, symName: __ZNSt3__116__hash_node_baseIPNS_11__hash_nodeINS_17__hash_value_typeINS_12basic_stringIcNS_11char_traitsIcEENS_9allocatorIcEEEEN10PolisCacos8InfoCacoEEEPvEEE8__upcastB8ue170006Ev, symObjAddr: 0x3230, symBinAddr: 0x100003A40, symSize: 0x20 }
  - { offsetInCU: 0x20ABF, offset: 0x20ABF, size: 0x8, addend: 0x0, symName: __ZNSt3__115__hash_iteratorIPNS_11__hash_nodeINS_17__hash_value_typeINS_12basic_stringIcNS_11char_traitsIcEENS_9allocatorIcEEEEN10PolisCacos8InfoCacoEEEPvEEEC1B8ue170006EPNS_16__hash_node_baseISE_EE, symObjAddr: 0x3250, symBinAddr: 0x100003A60, symSize: 0x30 }
  - { offsetInCU: 0x20AF8, offset: 0x20AF8, size: 0x8, addend: 0x0, symName: __ZNSt3__112__hash_tableINS_17__hash_value_typeINS_12basic_stringIcNS_11char_traitsIcEENS_9allocatorIcEEEEN10PolisCacos8InfoCacoEEENS_22__unordered_map_hasherIS7_SA_NS_4hashIS7_EENS_8equal_toIS7_EELb1EEENS_21__unordered_map_equalIS7_SA_SF_SD_Lb1EEENS5_ISA_EEE3endEv, symObjAddr: 0x3280, symBinAddr: 0x100003A90, symSize: 0x30 }
  - { offsetInCU: 0x20B20, offset: 0x20B20, size: 0x8, addend: 0x0, symName: __ZNSt3__117__compressed_pairImNS_22__unordered_map_hasherINS_12basic_stringIcNS_11char_traitsIcEENS_9allocatorIcEEEENS_17__hash_value_typeIS7_N10PolisCacos8InfoCacoEEENS_4hashIS7_EENS_8equal_toIS7_EELb1EEEE6secondB8ue170006Ev, symObjAddr: 0x32B0, symBinAddr: 0x100003AC0, symSize: 0x20 }
  - { offsetInCU: 0x20B46, offset: 0x20B46, size: 0x8, addend: 0x0, symName: __ZNSt3__122__compressed_pair_elemINS_22__unordered_map_hasherINS_12basic_stringIcNS_11char_traitsIcEENS_9allocatorIcEEEENS_17__hash_value_typeIS7_N10PolisCacos8InfoCacoEEENS_4hashIS7_EENS_8equal_toIS7_EELb1EEELi1ELb1EE5__getB8ue170006Ev, symObjAddr: 0x32D0, symBinAddr: 0x100003AE0, symSize: 0x10 }
  - { offsetInCU: 0x20B6C, offset: 0x20B6C, size: 0x8, addend: 0x0, symName: __ZNKSt3__113__string_hashIcNS_9allocatorIcEEEclB8ue170006ERKNS_12basic_stringIcNS_11char_traitsIcEES2_EE, symObjAddr: 0x32E0, symBinAddr: 0x100003AF0, symSize: 0x60 }
  - { offsetInCU: 0x20BA1, offset: 0x20BA1, size: 0x8, addend: 0x0, symName: __ZNKSt3__112basic_stringIcNS_11char_traitsIcEENS_9allocatorIcEEE4dataB8ue170006Ev, symObjAddr: 0x3380, symBinAddr: 0x100003B90, symSize: 0x30 }
  - { offsetInCU: 0x20BC7, offset: 0x20BC7, size: 0x8, addend: 0x0, symName: __ZNKSt3__112basic_stringIcNS_11char_traitsIcEENS_9allocatorIcEEE4sizeB8ue170006Ev, symObjAddr: 0x33B0, symBinAddr: 0x100003BC0, symSize: 0x50 }
  - { offsetInCU: 0x20BED, offset: 0x20BED, size: 0x8, addend: 0x0, symName: __ZNKSt3__121__murmur2_or_cityhashImLm64EEclB8ue170006EPKvm, symObjAddr: 0x3400, symBinAddr: 0x100003C10, symSize: 0x3D0 }
  - { offsetInCU: 0x20C85, offset: 0x20C85, size: 0x8, addend: 0x0, symName: __ZNSt3__121__murmur2_or_cityhashImLm64EE18__hash_len_0_to_16B8ue170006EPKcm, symObjAddr: 0x37D0, symBinAddr: 0x100003FE0, symSize: 0x180 }
  - { offsetInCU: 0x20D5E, offset: 0x20D5E, size: 0x8, addend: 0x0, symName: __ZNSt3__121__murmur2_or_cityhashImLm64EE19__hash_len_17_to_32B8ue170006EPKcm, symObjAddr: 0x3950, symBinAddr: 0x100004160, symSize: 0x100 }
  - { offsetInCU: 0x20DC7, offset: 0x20DC7, size: 0x8, addend: 0x0, symName: __ZNSt3__121__murmur2_or_cityhashImLm64EE19__hash_len_33_to_64B8ue170006EPKcm, symObjAddr: 0x3A50, symBinAddr: 0x100004260, symSize: 0x260 }
  - { offsetInCU: 0x20E7C, offset: 0x20E7C, size: 0x8, addend: 0x0, symName: __ZNSt3__121__murmur2_or_cityhashImLm64EE13__hash_len_16B8ue170006Emm, symObjAddr: 0x3CD0, symBinAddr: 0x1000044E0, symSize: 0x90 }
  - { offsetInCU: 0x20ED7, offset: 0x20ED7, size: 0x8, addend: 0x0, symName: __ZNSt3__121__murmur2_or_cityhashImLm64EE29__weak_hash_len_32_with_seedsB8ue170006EPKcmm, symObjAddr: 0x3D60, symBinAddr: 0x100004570, symSize: 0x90 }
  - { offsetInCU: 0x20F16, offset: 0x20F16, size: 0x8, addend: 0x0, symName: __ZNSt3__121__murmur2_or_cityhashImLm64EE8__rotateB8ue170006Emi, symObjAddr: 0x3DF0, symBinAddr: 0x100004600, symSize: 0x50 }
  - { offsetInCU: 0x20F47, offset: 0x20F47, size: 0x8, addend: 0x0, symName: __ZNSt3__14pairImmEaSB8ue170006EOS1_, symObjAddr: 0x3E40, symBinAddr: 0x100004650, symSize: 0x30 }
  - { offsetInCU: 0x20F7C, offset: 0x20F7C, size: 0x8, addend: 0x0, symName: __ZNSt3__121__murmur2_or_cityhashImLm64EE11__shift_mixB8ue170006Em, symObjAddr: 0x3EB0, symBinAddr: 0x1000046C0, symSize: 0x20 }
  - { offsetInCU: 0x20F9F, offset: 0x20F9F, size: 0x8, addend: 0x0, symName: __ZNSt3__121__murmur2_or_cityhashImLm64EE22__rotate_by_at_least_1B8ue170006Emi, symObjAddr: 0x3ED0, symBinAddr: 0x1000046E0, symSize: 0x30 }
  - { offsetInCU: 0x20FD0, offset: 0x20FD0, size: 0x8, addend: 0x0, symName: __ZNSt3__121__murmur2_or_cityhashImLm64EE29__weak_hash_len_32_with_seedsB8ue170006Emmmmmm, symObjAddr: 0x3F20, symBinAddr: 0x100004730, symSize: 0xD0 }
  - { offsetInCU: 0x2104E, offset: 0x2104E, size: 0x8, addend: 0x0, symName: __ZNSt3__14pairImmEC1B8ue170006ImmLPv0EEEOT_OT0_, symObjAddr: 0x3FF0, symBinAddr: 0x100004800, symSize: 0x30 }
  - { offsetInCU: 0x210AC, offset: 0x210AC, size: 0x8, addend: 0x0, symName: __ZNSt3__14pairImmEC2B8ue170006ImmLPv0EEEOT_OT0_, symObjAddr: 0x4020, symBinAddr: 0x100004830, symSize: 0x30 }
  - { offsetInCU: 0x2110A, offset: 0x2110A, size: 0x8, addend: 0x0, symName: __ZNKSt3__112basic_stringIcNS_11char_traitsIcEENS_9allocatorIcEEE13__get_pointerB8ue170006Ev, symObjAddr: 0x4060, symBinAddr: 0x100004870, symSize: 0x50 }
  - { offsetInCU: 0x21130, offset: 0x21130, size: 0x8, addend: 0x0, symName: __ZNKSt3__112basic_stringIcNS_11char_traitsIcEENS_9allocatorIcEEE9__is_longB8ue170006Ev, symObjAddr: 0x40B0, symBinAddr: 0x1000048C0, symSize: 0x30 }
  - { offsetInCU: 0x21156, offset: 0x21156, size: 0x8, addend: 0x0, symName: __ZNKSt3__112basic_stringIcNS_11char_traitsIcEENS_9allocatorIcEEE18__get_long_pointerB8ue170006Ev, symObjAddr: 0x40E0, symBinAddr: 0x1000048F0, symSize: 0x20 }
  - { offsetInCU: 0x2117C, offset: 0x2117C, size: 0x8, addend: 0x0, symName: __ZNKSt3__112basic_stringIcNS_11char_traitsIcEENS_9allocatorIcEEE19__get_short_pointerB8ue170006Ev, symObjAddr: 0x4100, symBinAddr: 0x100004910, symSize: 0x30 }
  - { offsetInCU: 0x211A2, offset: 0x211A2, size: 0x8, addend: 0x0, symName: __ZNKSt3__117__compressed_pairINS_12basic_stringIcNS_11char_traitsIcEENS_9allocatorIcEEE5__repES5_E5firstB8ue170006Ev, symObjAddr: 0x4130, symBinAddr: 0x100004940, symSize: 0x20 }
  - { offsetInCU: 0x211C8, offset: 0x211C8, size: 0x8, addend: 0x0, symName: __ZNKSt3__122__compressed_pair_elemINS_12basic_stringIcNS_11char_traitsIcEENS_9allocatorIcEEE5__repELi0ELb0EE5__getB8ue170006Ev, symObjAddr: 0x4150, symBinAddr: 0x100004960, symSize: 0x10 }
  - { offsetInCU: 0x211EE, offset: 0x211EE, size: 0x8, addend: 0x0, symName: __ZNSt3__114pointer_traitsIPKcE10pointer_toB8ue170006ERS1_, symObjAddr: 0x4160, symBinAddr: 0x100004970, symSize: 0x10 }
  - { offsetInCU: 0x21211, offset: 0x21211, size: 0x8, addend: 0x0, symName: __ZNKSt3__112basic_stringIcNS_11char_traitsIcEENS_9allocatorIcEEE15__get_long_sizeB8ue170006Ev, symObjAddr: 0x4170, symBinAddr: 0x100004980, symSize: 0x20 }
  - { offsetInCU: 0x21237, offset: 0x21237, size: 0x8, addend: 0x0, symName: __ZNKSt3__112basic_stringIcNS_11char_traitsIcEENS_9allocatorIcEEE16__get_short_sizeB8ue170006Ev, symObjAddr: 0x4190, symBinAddr: 0x1000049A0, symSize: 0x30 }
  - { offsetInCU: 0x2125D, offset: 0x2125D, size: 0x8, addend: 0x0, symName: __ZNKSt3__110unique_ptrIA_PNS_16__hash_node_baseIPNS_11__hash_nodeINS_17__hash_value_typeINS_12basic_stringIcNS_11char_traitsIcEENS_9allocatorIcEEEEN10PolisCacos8InfoCacoEEEPvEEEENS_25__bucket_list_deallocatorINS7_ISH_EEEEE11get_deleterB8ue170006Ev, symObjAddr: 0x41C0, symBinAddr: 0x1000049D0, symSize: 0x20 }
  - { offsetInCU: 0x21283, offset: 0x21283, size: 0x8, addend: 0x0, symName: __ZNKSt3__125__bucket_list_deallocatorINS_9allocatorIPNS_16__hash_node_baseIPNS_11__hash_nodeINS_17__hash_value_typeINS_12basic_stringIcNS_11char_traitsIcEENS1_IcEEEEN10PolisCacos8InfoCacoEEEPvEEEEEEE4sizeB8ue170006Ev, symObjAddr: 0x41E0, symBinAddr: 0x1000049F0, symSize: 0x20 }
  - { offsetInCU: 0x212A9, offset: 0x212A9, size: 0x8, addend: 0x0, symName: __ZNKSt3__117__compressed_pairIPPNS_16__hash_node_baseIPNS_11__hash_nodeINS_17__hash_value_typeINS_12basic_stringIcNS_11char_traitsIcEENS_9allocatorIcEEEEN10PolisCacos8InfoCacoEEEPvEEEENS_25__bucket_list_deallocatorINS7_ISH_EEEEE6secondB8ue170006Ev, symObjAddr: 0x4200, symBinAddr: 0x100004A10, symSize: 0x20 }
  - { offsetInCU: 0x212CF, offset: 0x212CF, size: 0x8, addend: 0x0, symName: __ZNKSt3__122__compressed_pair_elemINS_25__bucket_list_deallocatorINS_9allocatorIPNS_16__hash_node_baseIPNS_11__hash_nodeINS_17__hash_value_typeINS_12basic_stringIcNS_11char_traitsIcEENS2_IcEEEEN10PolisCacos8InfoCacoEEEPvEEEEEEEELi1ELb0EE5__getB8ue170006Ev, symObjAddr: 0x4220, symBinAddr: 0x100004A30, symSize: 0x10 }
  - { offsetInCU: 0x212F5, offset: 0x212F5, size: 0x8, addend: 0x0, symName: __ZNKSt3__117__compressed_pairImNS_9allocatorIPNS_16__hash_node_baseIPNS_11__hash_nodeINS_17__hash_value_typeINS_12basic_stringIcNS_11char_traitsIcEENS1_IcEEEEN10PolisCacos8InfoCacoEEEPvEEEEEEE5firstB8ue170006Ev, symObjAddr: 0x4230, symBinAddr: 0x100004A40, symSize: 0x20 }
  - { offsetInCU: 0x2131B, offset: 0x2131B, size: 0x8, addend: 0x0, symName: __ZNKSt3__122__compressed_pair_elemImLi0ELb0EE5__getB8ue170006Ev, symObjAddr: 0x4250, symBinAddr: 0x100004A60, symSize: 0x10 }
  - { offsetInCU: 0x21341, offset: 0x21341, size: 0x8, addend: 0x0, symName: __ZNKSt3__117__compressed_pairIPPNS_16__hash_node_baseIPNS_11__hash_nodeINS_17__hash_value_typeINS_12basic_stringIcNS_11char_traitsIcEENS_9allocatorIcEEEEN10PolisCacos8InfoCacoEEEPvEEEENS_25__bucket_list_deallocatorINS7_ISH_EEEEE5firstB8ue170006Ev, symObjAddr: 0x4260, symBinAddr: 0x100004A70, symSize: 0x20 }
  - { offsetInCU: 0x21367, offset: 0x21367, size: 0x8, addend: 0x0, symName: __ZNKSt3__122__compressed_pair_elemIPPNS_16__hash_node_baseIPNS_11__hash_nodeINS_17__hash_value_typeINS_12basic_stringIcNS_11char_traitsIcEENS_9allocatorIcEEEEN10PolisCacos8InfoCacoEEEPvEEEELi0ELb0EE5__getB8ue170006Ev, symObjAddr: 0x4280, symBinAddr: 0x100004A90, symSize: 0x10 }
  - { offsetInCU: 0x2138D, offset: 0x2138D, size: 0x8, addend: 0x0, symName: __ZNSt3__117__compressed_pairIfNS_21__unordered_map_equalINS_12basic_stringIcNS_11char_traitsIcEENS_9allocatorIcEEEENS_17__hash_value_typeIS7_N10PolisCacos8InfoCacoEEENS_8equal_toIS7_EENS_4hashIS7_EELb1EEEE6secondB8ue170006Ev, symObjAddr: 0x4290, symBinAddr: 0x100004AA0, symSize: 0x20 }
  - { offsetInCU: 0x213B3, offset: 0x213B3, size: 0x8, addend: 0x0, symName: __ZNSt3__122__compressed_pair_elemINS_21__unordered_map_equalINS_12basic_stringIcNS_11char_traitsIcEENS_9allocatorIcEEEENS_17__hash_value_typeIS7_N10PolisCacos8InfoCacoEEENS_8equal_toIS7_EENS_4hashIS7_EELb1EEELi1ELb1EE5__getB8ue170006Ev, symObjAddr: 0x42B0, symBinAddr: 0x100004AC0, symSize: 0x10 }
  - { offsetInCU: 0x213D9, offset: 0x213D9, size: 0x8, addend: 0x0, symName: __ZNKSt3__18equal_toINS_12basic_stringIcNS_11char_traitsIcEENS_9allocatorIcEEEEEclB8ue170006ERKS6_S9_, symObjAddr: 0x42C0, symBinAddr: 0x100004AD0, symSize: 0x30 }
  - { offsetInCU: 0x2141D, offset: 0x2141D, size: 0x8, addend: 0x0, symName: __ZNKSt3__117__hash_value_typeINS_12basic_stringIcNS_11char_traitsIcEENS_9allocatorIcEEEEN10PolisCacos8InfoCacoEE11__get_valueB8ue170006Ev, symObjAddr: 0x42F0, symBinAddr: 0x100004B00, symSize: 0x20 }
  - { offsetInCU: 0x21443, offset: 0x21443, size: 0x8, addend: 0x0, symName: __ZNSt3__111char_traitsIcE7compareB8ue170006EPKcS3_m, symObjAddr: 0x4420, symBinAddr: 0x100004C30, symSize: 0x30 }
  - { offsetInCU: 0x21482, offset: 0x21482, size: 0x8, addend: 0x0, symName: __ZNSt3__114pointer_traitsIPNS_16__hash_node_baseIPNS_11__hash_nodeINS_17__hash_value_typeINS_12basic_stringIcNS_11char_traitsIcEENS_9allocatorIcEEEEN10PolisCacos8InfoCacoEEEPvEEEEE10pointer_toB8ue170006ERSG_, symObjAddr: 0x4480, symBinAddr: 0x100004C90, symSize: 0x10 }
  - { offsetInCU: 0x214A5, offset: 0x214A5, size: 0x8, addend: 0x0, symName: __ZNSt3__115__hash_iteratorIPNS_11__hash_nodeINS_17__hash_value_typeINS_12basic_stringIcNS_11char_traitsIcEENS_9allocatorIcEEEEN10PolisCacos8InfoCacoEEEPvEEEC2B8ue170006EPNS_16__hash_node_baseISE_EE, symObjAddr: 0x4490, symBinAddr: 0x100004CA0, symSize: 0x20 }
  - { offsetInCU: 0x214DE, offset: 0x214DE, size: 0x8, addend: 0x0, symName: __ZNSt3__119__hash_map_iteratorINS_15__hash_iteratorIPNS_11__hash_nodeINS_17__hash_value_typeINS_12basic_stringIcNS_11char_traitsIcEENS_9allocatorIcEEEEN10PolisCacos8InfoCacoEEEPvEEEEEC2B8ue170006ESG_, symObjAddr: 0x44B0, symBinAddr: 0x100004CC0, symSize: 0x20 }
  - { offsetInCU: 0x21517, offset: 0x21517, size: 0x8, addend: 0x0, symName: __ZNSt16invalid_argumentC2B8ue170006EPKc, symObjAddr: 0x44D0, symBinAddr: 0x100004CE0, symSize: 0x40 }
  - { offsetInCU: 0x2154F, offset: 0x2154F, size: 0x8, addend: 0x0, symName: __ZN10PolisCacos8InfoCacoC2Ev, symObjAddr: 0x4510, symBinAddr: 0x100004D20, symSize: 0x30 }
  - { offsetInCU: 0x2157B, offset: 0x2157B, size: 0x8, addend: 0x0, symName: __ZNSt3__115__list_iteratorINS_12basic_stringIcNS_11char_traitsIcEENS_9allocatorIcEEEEPvEC1B8ue170006Ev, symObjAddr: 0x4540, symBinAddr: 0x100004D50, symSize: 0x20 }
  - { offsetInCU: 0x215A5, offset: 0x215A5, size: 0x8, addend: 0x0, symName: __ZNSt3__115__list_iteratorINS_12basic_stringIcNS_11char_traitsIcEENS_9allocatorIcEEEEPvEC2B8ue170006Ev, symObjAddr: 0x4560, symBinAddr: 0x100004D70, symSize: 0x20 }
  - { offsetInCU: 0x215CF, offset: 0x215CF, size: 0x8, addend: 0x0, symName: __ZNSt3__110__list_impINS_12basic_stringIcNS_11char_traitsIcEENS_9allocatorIcEEEENS4_IS6_EEE3endB8ue170006Ev, symObjAddr: 0x4580, symBinAddr: 0x100004D90, symSize: 0x30 }
  - { offsetInCU: 0x215F5, offset: 0x215F5, size: 0x8, addend: 0x0, symName: __ZNKSt3__110__list_impINS_12basic_stringIcNS_11char_traitsIcEENS_9allocatorIcEEEENS4_IS6_EEE13__end_as_linkB8ue170006Ev, symObjAddr: 0x45B0, symBinAddr: 0x100004DC0, symSize: 0x30 }
  - { offsetInCU: 0x2161B, offset: 0x2161B, size: 0x8, addend: 0x0, symName: __ZNSt3__115__list_iteratorINS_12basic_stringIcNS_11char_traitsIcEENS_9allocatorIcEEEEPvEC1B8ue170006EPNS_16__list_node_baseIS6_S7_EE, symObjAddr: 0x45E0, symBinAddr: 0x100004DF0, symSize: 0x30 }
  - { offsetInCU: 0x21654, offset: 0x21654, size: 0x8, addend: 0x0, symName: __ZNSt3__115__list_iteratorINS_12basic_stringIcNS_11char_traitsIcEENS_9allocatorIcEEEEPvEC2B8ue170006EPNS_16__list_node_baseIS6_S7_EE, symObjAddr: 0x4610, symBinAddr: 0x100004E20, symSize: 0x20 }
  - { offsetInCU: 0x2168D, offset: 0x2168D, size: 0x8, addend: 0x0, symName: __ZNSt3__110__list_impINS_12basic_stringIcNS_11char_traitsIcEENS_9allocatorIcEEEENS4_IS6_EEE12__node_allocB8ue170006Ev, symObjAddr: 0x4630, symBinAddr: 0x100004E40, symSize: 0x20 }
  - { offsetInCU: 0x216B3, offset: 0x216B3, size: 0x8, addend: 0x0, symName: __ZNSt3__14listINS_12basic_stringIcNS_11char_traitsIcEENS_9allocatorIcEEEENS4_IS6_EEE15__allocate_nodeB8ue170006ERNS4_INS_11__list_nodeIS6_PvEEEE, symObjAddr: 0x4650, symBinAddr: 0x100004E60, symSize: 0x80 }
  - { offsetInCU: 0x216F7, offset: 0x216F7, size: 0x8, addend: 0x0, symName: __ZNSt3__116allocator_traitsINS_9allocatorINS_11__list_nodeINS_12basic_stringIcNS_11char_traitsIcEENS1_IcEEEEPvEEEEE9constructB8ue170006IS7_JRKS7_EvEEvRSA_PT_DpOT0_, symObjAddr: 0x46D0, symBinAddr: 0x100004EE0, symSize: 0x30 }
  - { offsetInCU: 0x2174E, offset: 0x2174E, size: 0x8, addend: 0x0, symName: __ZNKSt3__110unique_ptrINS_11__list_nodeINS_12basic_stringIcNS_11char_traitsIcEENS_9allocatorIcEEEEPvEENS_22__allocator_destructorINS5_IS9_EEEEEptB8ue170006Ev, symObjAddr: 0x4700, symBinAddr: 0x100004F10, symSize: 0x20 }
  - { offsetInCU: 0x21774, offset: 0x21774, size: 0x8, addend: 0x0, symName: __ZNSt3__14listINS_12basic_stringIcNS_11char_traitsIcEENS_9allocatorIcEEEENS4_IS6_EEE20__link_nodes_at_backEPNS_16__list_node_baseIS6_PvEESC_, symObjAddr: 0x4720, symBinAddr: 0x100004F30, symSize: 0x60 }
  - { offsetInCU: 0x217BA, offset: 0x217BA, size: 0x8, addend: 0x0, symName: __ZNKSt3__110unique_ptrINS_11__list_nodeINS_12basic_stringIcNS_11char_traitsIcEENS_9allocatorIcEEEEPvEENS_22__allocator_destructorINS5_IS9_EEEEE3getB8ue170006Ev, symObjAddr: 0x4780, symBinAddr: 0x100004F90, symSize: 0x20 }
  - { offsetInCU: 0x217E0, offset: 0x217E0, size: 0x8, addend: 0x0, symName: __ZNSt3__111__list_nodeINS_12basic_stringIcNS_11char_traitsIcEENS_9allocatorIcEEEEPvE9__as_linkB8ue170006Ev, symObjAddr: 0x47A0, symBinAddr: 0x100004FB0, symSize: 0x20 }
  - { offsetInCU: 0x21806, offset: 0x21806, size: 0x8, addend: 0x0, symName: __ZNSt3__110__list_impINS_12basic_stringIcNS_11char_traitsIcEENS_9allocatorIcEEEENS4_IS6_EEE4__szB8ue170006Ev, symObjAddr: 0x47C0, symBinAddr: 0x100004FD0, symSize: 0x20 }
  - { offsetInCU: 0x2182C, offset: 0x2182C, size: 0x8, addend: 0x0, symName: __ZNSt3__110unique_ptrINS_11__list_nodeINS_12basic_stringIcNS_11char_traitsIcEENS_9allocatorIcEEEEPvEENS_22__allocator_destructorINS5_IS9_EEEEE7releaseB8ue170006Ev, symObjAddr: 0x47E0, symBinAddr: 0x100004FF0, symSize: 0x40 }
  - { offsetInCU: 0x21861, offset: 0x21861, size: 0x8, addend: 0x0, symName: __ZNSt3__110unique_ptrINS_11__list_nodeINS_12basic_stringIcNS_11char_traitsIcEENS_9allocatorIcEEEEPvEENS_22__allocator_destructorINS5_IS9_EEEEED1B8ue170006Ev, symObjAddr: 0x4820, symBinAddr: 0x100005030, symSize: 0x20 }
  - { offsetInCU: 0x2188B, offset: 0x2188B, size: 0x8, addend: 0x0, symName: __ZNSt3__117__compressed_pairImNS_9allocatorINS_11__list_nodeINS_12basic_stringIcNS_11char_traitsIcEENS1_IcEEEEPvEEEEE6secondB8ue170006Ev, symObjAddr: 0x4840, symBinAddr: 0x100005050, symSize: 0x20 }
  - { offsetInCU: 0x218B1, offset: 0x218B1, size: 0x8, addend: 0x0, symName: __ZNSt3__122__compressed_pair_elemINS_9allocatorINS_11__list_nodeINS_12basic_stringIcNS_11char_traitsIcEENS1_IcEEEEPvEEEELi1ELb1EE5__getB8ue170006Ev, symObjAddr: 0x4860, symBinAddr: 0x100005070, symSize: 0x10 }
  - { offsetInCU: 0x218D7, offset: 0x218D7, size: 0x8, addend: 0x0, symName: __ZNSt3__116allocator_traitsINS_9allocatorINS_11__list_nodeINS_12basic_stringIcNS_11char_traitsIcEENS1_IcEEEEPvEEEEE8allocateB8ue170006ERSA_m, symObjAddr: 0x4870, symBinAddr: 0x100005080, symSize: 0x30 }
  - { offsetInCU: 0x2190A, offset: 0x2190A, size: 0x8, addend: 0x0, symName: __ZNSt3__122__allocator_destructorINS_9allocatorINS_11__list_nodeINS_12basic_stringIcNS_11char_traitsIcEENS1_IcEEEEPvEEEEEC1B8ue170006ERSA_m, symObjAddr: 0x48A0, symBinAddr: 0x1000050B0, symSize: 0x30 }
  - { offsetInCU: 0x21956, offset: 0x21956, size: 0x8, addend: 0x0, symName: __ZNSt3__110unique_ptrINS_11__list_nodeINS_12basic_stringIcNS_11char_traitsIcEENS_9allocatorIcEEEEPvEENS_22__allocator_destructorINS5_IS9_EEEEEC1B8ue170006ILb1EvEEPS9_NS_16__dependent_typeINS_27__unique_ptr_deleter_sfinaeISC_EEXT_EE20__good_rval_ref_typeE, symObjAddr: 0x48D0, symBinAddr: 0x1000050E0, symSize: 0x30 }
  - { offsetInCU: 0x219A7, offset: 0x219A7, size: 0x8, addend: 0x0, symName: __ZNSt3__19allocatorINS_11__list_nodeINS_12basic_stringIcNS_11char_traitsIcEENS0_IcEEEEPvEEE8allocateB8ue170006Em, symObjAddr: 0x4900, symBinAddr: 0x100005110, symSize: 0x50 }
  - { offsetInCU: 0x219E6, offset: 0x219E6, size: 0x8, addend: 0x0, symName: __ZNSt3__116allocator_traitsINS_9allocatorINS_11__list_nodeINS_12basic_stringIcNS_11char_traitsIcEENS1_IcEEEEPvEEEEE8max_sizeB8ue170006ISA_vEEmRKSA_, symObjAddr: 0x4950, symBinAddr: 0x100005160, symSize: 0x20 }
  - { offsetInCU: 0x21A14, offset: 0x21A14, size: 0x8, addend: 0x0, symName: __ZNKSt3__19allocatorINS_11__list_nodeINS_12basic_stringIcNS_11char_traitsIcEENS0_IcEEEEPvEEE8max_sizeB8ue170006Ev, symObjAddr: 0x4A10, symBinAddr: 0x100005220, symSize: 0x20 }
  - { offsetInCU: 0x21A3A, offset: 0x21A3A, size: 0x8, addend: 0x0, symName: __ZNSt3__122__allocator_destructorINS_9allocatorINS_11__list_nodeINS_12basic_stringIcNS_11char_traitsIcEENS1_IcEEEEPvEEEEEC2B8ue170006ERSA_m, symObjAddr: 0x4AA0, symBinAddr: 0x1000052B0, symSize: 0x30 }
  - { offsetInCU: 0x21A80, offset: 0x21A80, size: 0x8, addend: 0x0, symName: __ZNSt3__110unique_ptrINS_11__list_nodeINS_12basic_stringIcNS_11char_traitsIcEENS_9allocatorIcEEEEPvEENS_22__allocator_destructorINS5_IS9_EEEEEC2B8ue170006ILb1EvEEPS9_NS_16__dependent_typeINS_27__unique_ptr_deleter_sfinaeISC_EEXT_EE20__good_rval_ref_typeE, symObjAddr: 0x4AD0, symBinAddr: 0x1000052E0, symSize: 0x40 }
  - { offsetInCU: 0x21AD1, offset: 0x21AD1, size: 0x8, addend: 0x0, symName: __ZNSt3__117__compressed_pairIPNS_11__list_nodeINS_12basic_stringIcNS_11char_traitsIcEENS_9allocatorIcEEEEPvEENS_22__allocator_destructorINS5_IS9_EEEEEC1B8ue170006IRSA_SD_EEOT_OT0_, symObjAddr: 0x4B10, symBinAddr: 0x100005320, symSize: 0x30 }
  - { offsetInCU: 0x21B29, offset: 0x21B29, size: 0x8, addend: 0x0, symName: __ZNSt3__117__compressed_pairIPNS_11__list_nodeINS_12basic_stringIcNS_11char_traitsIcEENS_9allocatorIcEEEEPvEENS_22__allocator_destructorINS5_IS9_EEEEEC2B8ue170006IRSA_SD_EEOT_OT0_, symObjAddr: 0x4B40, symBinAddr: 0x100005350, symSize: 0x40 }
  - { offsetInCU: 0x21B81, offset: 0x21B81, size: 0x8, addend: 0x0, symName: __ZNSt3__122__compressed_pair_elemIPNS_11__list_nodeINS_12basic_stringIcNS_11char_traitsIcEENS_9allocatorIcEEEEPvEELi0ELb0EEC2B8ue170006IRSA_vEEOT_, symObjAddr: 0x4B80, symBinAddr: 0x100005390, symSize: 0x20 }
  - { offsetInCU: 0x21BC3, offset: 0x21BC3, size: 0x8, addend: 0x0, symName: __ZNSt3__122__compressed_pair_elemINS_22__allocator_destructorINS_9allocatorINS_11__list_nodeINS_12basic_stringIcNS_11char_traitsIcEENS2_IcEEEEPvEEEEEELi1ELb0EEC2B8ue170006ISC_vEEOT_, symObjAddr: 0x4BA0, symBinAddr: 0x1000053B0, symSize: 0x30 }
  - { offsetInCU: 0x21C05, offset: 0x21C05, size: 0x8, addend: 0x0, symName: __ZNSt3__19allocatorINS_11__list_nodeINS_12basic_stringIcNS_11char_traitsIcEENS0_IcEEEEPvEEE9constructB8ue170006IS6_JRKS6_EEEvPT_DpOT0_, symObjAddr: 0x4BD0, symBinAddr: 0x1000053E0, symSize: 0x30 }
  - { offsetInCU: 0x21C5B, offset: 0x21C5B, size: 0x8, addend: 0x0, symName: __ZNKSt3__117__compressed_pairIPNS_11__list_nodeINS_12basic_stringIcNS_11char_traitsIcEENS_9allocatorIcEEEEPvEENS_22__allocator_destructorINS5_IS9_EEEEE5firstB8ue170006Ev, symObjAddr: 0x4C00, symBinAddr: 0x100005410, symSize: 0x20 }
  - { offsetInCU: 0x21C81, offset: 0x21C81, size: 0x8, addend: 0x0, symName: __ZNKSt3__122__compressed_pair_elemIPNS_11__list_nodeINS_12basic_stringIcNS_11char_traitsIcEENS_9allocatorIcEEEEPvEELi0ELb0EE5__getB8ue170006Ev, symObjAddr: 0x4C20, symBinAddr: 0x100005430, symSize: 0x10 }
  - { offsetInCU: 0x21CA7, offset: 0x21CA7, size: 0x8, addend: 0x0, symName: __ZNSt3__117__compressed_pairImNS_9allocatorINS_11__list_nodeINS_12basic_stringIcNS_11char_traitsIcEENS1_IcEEEEPvEEEEE5firstB8ue170006Ev, symObjAddr: 0x4C30, symBinAddr: 0x100005440, symSize: 0x20 }
  - { offsetInCU: 0x21CCD, offset: 0x21CCD, size: 0x8, addend: 0x0, symName: __ZNSt3__122__compressed_pair_elemImLi0ELb0EE5__getB8ue170006Ev, symObjAddr: 0x4C50, symBinAddr: 0x100005460, symSize: 0x10 }
  - { offsetInCU: 0x21CF3, offset: 0x21CF3, size: 0x8, addend: 0x0, symName: __ZNSt3__117__compressed_pairIPNS_11__list_nodeINS_12basic_stringIcNS_11char_traitsIcEENS_9allocatorIcEEEEPvEENS_22__allocator_destructorINS5_IS9_EEEEE5firstB8ue170006Ev, symObjAddr: 0x4C60, symBinAddr: 0x100005470, symSize: 0x20 }
  - { offsetInCU: 0x21D19, offset: 0x21D19, size: 0x8, addend: 0x0, symName: __ZNSt3__122__compressed_pair_elemIPNS_11__list_nodeINS_12basic_stringIcNS_11char_traitsIcEENS_9allocatorIcEEEEPvEELi0ELb0EE5__getB8ue170006Ev, symObjAddr: 0x4C80, symBinAddr: 0x100005490, symSize: 0x10 }
  - { offsetInCU: 0x21D3F, offset: 0x21D3F, size: 0x8, addend: 0x0, symName: __ZNSt3__110unique_ptrINS_11__list_nodeINS_12basic_stringIcNS_11char_traitsIcEENS_9allocatorIcEEEEPvEENS_22__allocator_destructorINS5_IS9_EEEEED2B8ue170006Ev, symObjAddr: 0x4C90, symBinAddr: 0x1000054A0, symSize: 0x20 }
  - { offsetInCU: 0x21D69, offset: 0x21D69, size: 0x8, addend: 0x0, symName: __ZNSt3__110unique_ptrINS_11__list_nodeINS_12basic_stringIcNS_11char_traitsIcEENS_9allocatorIcEEEEPvEENS_22__allocator_destructorINS5_IS9_EEEEE5resetB8ue170006EPS9_, symObjAddr: 0x4CB0, symBinAddr: 0x1000054C0, symSize: 0x70 }
  - { offsetInCU: 0x21DAD, offset: 0x21DAD, size: 0x8, addend: 0x0, symName: __ZNSt3__117__compressed_pairIPNS_11__list_nodeINS_12basic_stringIcNS_11char_traitsIcEENS_9allocatorIcEEEEPvEENS_22__allocator_destructorINS5_IS9_EEEEE6secondB8ue170006Ev, symObjAddr: 0x4D20, symBinAddr: 0x100005530, symSize: 0x20 }
  - { offsetInCU: 0x21DD3, offset: 0x21DD3, size: 0x8, addend: 0x0, symName: __ZNSt3__122__allocator_destructorINS_9allocatorINS_11__list_nodeINS_12basic_stringIcNS_11char_traitsIcEENS1_IcEEEEPvEEEEEclB8ue170006EPS9_, symObjAddr: 0x4D40, symBinAddr: 0x100005550, symSize: 0x30 }
  - { offsetInCU: 0x21E07, offset: 0x21E07, size: 0x8, addend: 0x0, symName: __ZNSt3__122__compressed_pair_elemINS_22__allocator_destructorINS_9allocatorINS_11__list_nodeINS_12basic_stringIcNS_11char_traitsIcEENS2_IcEEEEPvEEEEEELi1ELb0EE5__getB8ue170006Ev, symObjAddr: 0x4D70, symBinAddr: 0x100005580, symSize: 0x10 }
  - { offsetInCU: 0x21E2D, offset: 0x21E2D, size: 0x8, addend: 0x0, symName: __ZNSt3__116allocator_traitsINS_9allocatorINS_11__list_nodeINS_12basic_stringIcNS_11char_traitsIcEENS1_IcEEEEPvEEEEE10deallocateB8ue170006ERSA_PS9_m, symObjAddr: 0x4D80, symBinAddr: 0x100005590, symSize: 0x30 }
  - { offsetInCU: 0x21E6F, offset: 0x21E6F, size: 0x8, addend: 0x0, symName: __ZNSt3__19allocatorINS_11__list_nodeINS_12basic_stringIcNS_11char_traitsIcEENS0_IcEEEEPvEEE10deallocateB8ue170006EPS8_m, symObjAddr: 0x4DB0, symBinAddr: 0x1000055C0, symSize: 0x50 }
  - { offsetInCU: 0x21EB1, offset: 0x21EB1, size: 0x8, addend: 0x0, symName: __ZNSt3__112__hash_tableINS_17__hash_value_typeINS_12basic_stringIcNS_11char_traitsIcEENS_9allocatorIcEEEEN10PolisCacos8InfoCacoEEENS_22__unordered_map_hasherIS7_SA_NS_4hashIS7_EENS_8equal_toIS7_EELb1EEENS_21__unordered_map_equalIS7_SA_SF_SD_Lb1EEENS5_ISA_EEE15__insert_uniqueB8ue170006EONS_4pairIKS7_S9_EE, symObjAddr: 0x4F00, symBinAddr: 0x100005710, symSize: 0x50 }
  - { offsetInCU: 0x21EE6, offset: 0x21EE6, size: 0x8, addend: 0x0, symName: __ZNSt3__14pairINS_19__hash_map_iteratorINS_15__hash_iteratorIPNS_11__hash_nodeINS_17__hash_value_typeINS_12basic_stringIcNS_11char_traitsIcEENS_9allocatorIcEEEEN10PolisCacos8InfoCacoEEEPvEEEEEEbEC1B8ue170006ISH_bLSE_0EEEONS0_IT_T0_EE, symObjAddr: 0x4F50, symBinAddr: 0x100005760, symSize: 0x30 }
  - { offsetInCU: 0x21F37, offset: 0x21F37, size: 0x8, addend: 0x0, symName: __ZNSt3__112__hash_tableINS_17__hash_value_typeINS_12basic_stringIcNS_11char_traitsIcEENS_9allocatorIcEEEEN10PolisCacos8InfoCacoEEENS_22__unordered_map_hasherIS7_SA_NS_4hashIS7_EENS_8equal_toIS7_EELb1EEENS_21__unordered_map_equalIS7_SA_SF_SD_Lb1EEENS5_ISA_EEE25__emplace_unique_key_argsIS7_JNS_4pairIKS7_S9_EEEEENSM_INS_15__hash_iteratorIPNS_11__hash_nodeISA_PvEEEEbEERKT_DpOT0_, symObjAddr: 0x4F80, symBinAddr: 0x100005790, symSize: 0x5C0 }
  - { offsetInCU: 0x22015, offset: 0x22015, size: 0x8, addend: 0x0, symName: __ZNSt3__122__hash_key_value_typesINS_17__hash_value_typeINS_12basic_stringIcNS_11char_traitsIcEENS_9allocatorIcEEEEN10PolisCacos8InfoCacoEEEE9__get_keyB8ue170006ERKNS_4pairIKS7_S9_EE, symObjAddr: 0x5540, symBinAddr: 0x100005D50, symSize: 0x10 }
  - { offsetInCU: 0x22038, offset: 0x22038, size: 0x8, addend: 0x0, symName: __ZNSt3__112__hash_tableINS_17__hash_value_typeINS_12basic_stringIcNS_11char_traitsIcEENS_9allocatorIcEEEEN10PolisCacos8InfoCacoEEENS_22__unordered_map_hasherIS7_SA_NS_4hashIS7_EENS_8equal_toIS7_EELb1EEENS_21__unordered_map_equalIS7_SA_SF_SD_Lb1EEENS5_ISA_EEE21__construct_node_hashINS_4pairIKS7_S9_EEJEEENS_10unique_ptrINS_11__hash_nodeISA_PvEENS_22__hash_node_destructorINS5_ISS_EEEEEEmOT_DpOT0_, symObjAddr: 0x5550, symBinAddr: 0x100005D60, symSize: 0x140 }
  - { offsetInCU: 0x220AB, offset: 0x220AB, size: 0x8, addend: 0x0, symName: __ZNSt3__112__hash_tableINS_17__hash_value_typeINS_12basic_stringIcNS_11char_traitsIcEENS_9allocatorIcEEEEN10PolisCacos8InfoCacoEEENS_22__unordered_map_hasherIS7_SA_NS_4hashIS7_EENS_8equal_toIS7_EELb1EEENS_21__unordered_map_equalIS7_SA_SF_SD_Lb1EEENS5_ISA_EEE4sizeB8ue170006Ev, symObjAddr: 0x5690, symBinAddr: 0x100005EA0, symSize: 0x20 }
  - { offsetInCU: 0x220D1, offset: 0x220D1, size: 0x8, addend: 0x0, symName: __ZNSt3__112__hash_tableINS_17__hash_value_typeINS_12basic_stringIcNS_11char_traitsIcEENS_9allocatorIcEEEEN10PolisCacos8InfoCacoEEENS_22__unordered_map_hasherIS7_SA_NS_4hashIS7_EENS_8equal_toIS7_EELb1EEENS_21__unordered_map_equalIS7_SA_SF_SD_Lb1EEENS5_ISA_EEE15max_load_factorB8ue170006Ev, symObjAddr: 0x56B0, symBinAddr: 0x100005EC0, symSize: 0x20 }
  - { offsetInCU: 0x220F7, offset: 0x220F7, size: 0x8, addend: 0x0, symName: __ZNSt3__112__hash_tableINS_17__hash_value_typeINS_12basic_stringIcNS_11char_traitsIcEENS_9allocatorIcEEEEN10PolisCacos8InfoCacoEEENS_22__unordered_map_hasherIS7_SA_NS_4hashIS7_EENS_8equal_toIS7_EELb1EEENS_21__unordered_map_equalIS7_SA_SF_SD_Lb1EEENS5_ISA_EEE15__rehash_uniqueB8ue170006Em, symObjAddr: 0x56D0, symBinAddr: 0x100005EE0, symSize: 0x30 }
  - { offsetInCU: 0x2212B, offset: 0x2212B, size: 0x8, addend: 0x0, symName: __Z4ceilB8ue170006f, symObjAddr: 0x5770, symBinAddr: 0x100005F80, symSize: 0x20 }
  - { offsetInCU: 0x2215A, offset: 0x2215A, size: 0x8, addend: 0x0, symName: __ZNSt3__117__compressed_pairINS_16__hash_node_baseIPNS_11__hash_nodeINS_17__hash_value_typeINS_12basic_stringIcNS_11char_traitsIcEENS_9allocatorIcEEEEN10PolisCacos8InfoCacoEEEPvEEEENS7_ISE_EEE5firstB8ue170006Ev, symObjAddr: 0x5790, symBinAddr: 0x100005FA0, symSize: 0x20 }
  - { offsetInCU: 0x22180, offset: 0x22180, size: 0x8, addend: 0x0, symName: __ZNSt3__116__hash_node_baseIPNS_11__hash_nodeINS_17__hash_value_typeINS_12basic_stringIcNS_11char_traitsIcEENS_9allocatorIcEEEEN10PolisCacos8InfoCacoEEEPvEEE5__ptrB8ue170006Ev, symObjAddr: 0x57B0, symBinAddr: 0x100005FC0, symSize: 0x20 }
  - { offsetInCU: 0x221A6, offset: 0x221A6, size: 0x8, addend: 0x0, symName: __ZNKSt3__110unique_ptrINS_11__hash_nodeINS_17__hash_value_typeINS_12basic_stringIcNS_11char_traitsIcEENS_9allocatorIcEEEEN10PolisCacos8InfoCacoEEEPvEENS_22__hash_node_destructorINS6_ISD_EEEEEptB8ue170006Ev, symObjAddr: 0x57D0, symBinAddr: 0x100005FE0, symSize: 0x20 }
  - { offsetInCU: 0x221CC, offset: 0x221CC, size: 0x8, addend: 0x0, symName: __ZNKSt3__110unique_ptrINS_11__hash_nodeINS_17__hash_value_typeINS_12basic_stringIcNS_11char_traitsIcEENS_9allocatorIcEEEEN10PolisCacos8InfoCacoEEEPvEENS_22__hash_node_destructorINS6_ISD_EEEEE3getB8ue170006Ev, symObjAddr: 0x57F0, symBinAddr: 0x100006000, symSize: 0x20 }
  - { offsetInCU: 0x221F2, offset: 0x221F2, size: 0x8, addend: 0x0, symName: __ZNSt3__110unique_ptrINS_11__hash_nodeINS_17__hash_value_typeINS_12basic_stringIcNS_11char_traitsIcEENS_9allocatorIcEEEEN10PolisCacos8InfoCacoEEEPvEENS_22__hash_node_destructorINS6_ISD_EEEEE7releaseB8ue170006Ev, symObjAddr: 0x5810, symBinAddr: 0x100006020, symSize: 0x40 }
  - { offsetInCU: 0x22227, offset: 0x22227, size: 0x8, addend: 0x0, symName: __ZNSt3__110unique_ptrINS_11__hash_nodeINS_17__hash_value_typeINS_12basic_stringIcNS_11char_traitsIcEENS_9allocatorIcEEEEN10PolisCacos8InfoCacoEEEPvEENS_22__hash_node_destructorINS6_ISD_EEEEED1B8ue170006Ev, symObjAddr: 0x5850, symBinAddr: 0x100006060, symSize: 0x20 }
  - { offsetInCU: 0x22257, offset: 0x22257, size: 0x8, addend: 0x0, symName: __ZNSt3__14pairINS_15__hash_iteratorIPNS_11__hash_nodeINS_17__hash_value_typeINS_12basic_stringIcNS_11char_traitsIcEENS_9allocatorIcEEEEN10PolisCacos8InfoCacoEEEPvEEEEbEC1B8ue170006ISG_RbLSD_0EEEOT_OT0_, symObjAddr: 0x5870, symBinAddr: 0x100006080, symSize: 0x30 }
  - { offsetInCU: 0x222B5, offset: 0x222B5, size: 0x8, addend: 0x0, symName: __ZNSt3__112__hash_tableINS_17__hash_value_typeINS_12basic_stringIcNS_11char_traitsIcEENS_9allocatorIcEEEEN10PolisCacos8InfoCacoEEENS_22__unordered_map_hasherIS7_SA_NS_4hashIS7_EENS_8equal_toIS7_EELb1EEENS_21__unordered_map_equalIS7_SA_SF_SD_Lb1EEENS5_ISA_EEE12__node_allocB8ue170006Ev, symObjAddr: 0x58A0, symBinAddr: 0x1000060B0, symSize: 0x20 }
  - { offsetInCU: 0x222DB, offset: 0x222DB, size: 0x8, addend: 0x0, symName: __ZNSt3__116allocator_traitsINS_9allocatorINS_11__hash_nodeINS_17__hash_value_typeINS_12basic_stringIcNS_11char_traitsIcEENS1_IcEEEEN10PolisCacos8InfoCacoEEEPvEEEEE8allocateB8ue170006ERSE_m, symObjAddr: 0x58C0, symBinAddr: 0x1000060D0, symSize: 0x30 }
  - { offsetInCU: 0x2230E, offset: 0x2230E, size: 0x8, addend: 0x0, symName: __ZNSt3__122__hash_node_destructorINS_9allocatorINS_11__hash_nodeINS_17__hash_value_typeINS_12basic_stringIcNS_11char_traitsIcEENS1_IcEEEEN10PolisCacos8InfoCacoEEEPvEEEEEC1B8ue170006ERSE_b, symObjAddr: 0x58F0, symBinAddr: 0x100006100, symSize: 0x40 }
  - { offsetInCU: 0x2235C, offset: 0x2235C, size: 0x8, addend: 0x0, symName: __ZNSt3__110unique_ptrINS_11__hash_nodeINS_17__hash_value_typeINS_12basic_stringIcNS_11char_traitsIcEENS_9allocatorIcEEEEN10PolisCacos8InfoCacoEEEPvEENS_22__hash_node_destructorINS6_ISD_EEEEEC1B8ue170006ILb1EvEEPSD_NS_16__dependent_typeINS_27__unique_ptr_deleter_sfinaeISG_EEXT_EE20__good_rval_ref_typeE, symObjAddr: 0x5930, symBinAddr: 0x100006140, symSize: 0x30 }
  - { offsetInCU: 0x223AD, offset: 0x223AD, size: 0x8, addend: 0x0, symName: __ZNSt3__116allocator_traitsINS_9allocatorINS_11__hash_nodeINS_17__hash_value_typeINS_12basic_stringIcNS_11char_traitsIcEENS1_IcEEEEN10PolisCacos8InfoCacoEEEPvEEEEE9constructB8ue170006INS_4pairIKS8_SA_EEJSJ_EvEEvRSE_PT_DpOT0_, symObjAddr: 0x5960, symBinAddr: 0x100006170, symSize: 0x30 }
  - { offsetInCU: 0x22404, offset: 0x22404, size: 0x8, addend: 0x0, symName: __ZNSt3__122__hash_key_value_typesINS_17__hash_value_typeINS_12basic_stringIcNS_11char_traitsIcEENS_9allocatorIcEEEEN10PolisCacos8InfoCacoEEEE9__get_ptrB8ue170006ERSA_, symObjAddr: 0x5990, symBinAddr: 0x1000061A0, symSize: 0x20 }
  - { offsetInCU: 0x22427, offset: 0x22427, size: 0x8, addend: 0x0, symName: __ZNSt3__110unique_ptrINS_11__hash_nodeINS_17__hash_value_typeINS_12basic_stringIcNS_11char_traitsIcEENS_9allocatorIcEEEEN10PolisCacos8InfoCacoEEEPvEENS_22__hash_node_destructorINS6_ISD_EEEEE11get_deleterB8ue170006Ev, symObjAddr: 0x59B0, symBinAddr: 0x1000061C0, symSize: 0x20 }
  - { offsetInCU: 0x2244D, offset: 0x2244D, size: 0x8, addend: 0x0, symName: __ZNSt3__117__compressed_pairINS_16__hash_node_baseIPNS_11__hash_nodeINS_17__hash_value_typeINS_12basic_stringIcNS_11char_traitsIcEENS_9allocatorIcEEEEN10PolisCacos8InfoCacoEEEPvEEEENS7_ISE_EEE6secondB8ue170006Ev, symObjAddr: 0x59D0, symBinAddr: 0x1000061E0, symSize: 0x20 }
  - { offsetInCU: 0x22473, offset: 0x22473, size: 0x8, addend: 0x0, symName: __ZNSt3__122__compressed_pair_elemINS_9allocatorINS_11__hash_nodeINS_17__hash_value_typeINS_12basic_stringIcNS_11char_traitsIcEENS1_IcEEEEN10PolisCacos8InfoCacoEEEPvEEEELi1ELb1EE5__getB8ue170006Ev, symObjAddr: 0x59F0, symBinAddr: 0x100006200, symSize: 0x10 }
  - { offsetInCU: 0x22499, offset: 0x22499, size: 0x8, addend: 0x0, symName: __ZNSt3__19allocatorINS_11__hash_nodeINS_17__hash_value_typeINS_12basic_stringIcNS_11char_traitsIcEENS0_IcEEEEN10PolisCacos8InfoCacoEEEPvEEE8allocateB8ue170006Em, symObjAddr: 0x5A00, symBinAddr: 0x100006210, symSize: 0x50 }
  - { offsetInCU: 0x224D8, offset: 0x224D8, size: 0x8, addend: 0x0, symName: __ZNSt3__116allocator_traitsINS_9allocatorINS_11__hash_nodeINS_17__hash_value_typeINS_12basic_stringIcNS_11char_traitsIcEENS1_IcEEEEN10PolisCacos8InfoCacoEEEPvEEEEE8max_sizeB8ue170006ISE_vEEmRKSE_, symObjAddr: 0x5A50, symBinAddr: 0x100006260, symSize: 0x20 }
  - { offsetInCU: 0x22506, offset: 0x22506, size: 0x8, addend: 0x0, symName: __ZNKSt3__19allocatorINS_11__hash_nodeINS_17__hash_value_typeINS_12basic_stringIcNS_11char_traitsIcEENS0_IcEEEEN10PolisCacos8InfoCacoEEEPvEEE8max_sizeB8ue170006Ev, symObjAddr: 0x5A70, symBinAddr: 0x100006280, symSize: 0x20 }
  - { offsetInCU: 0x2252C, offset: 0x2252C, size: 0x8, addend: 0x0, symName: __ZNSt3__122__hash_node_destructorINS_9allocatorINS_11__hash_nodeINS_17__hash_value_typeINS_12basic_stringIcNS_11char_traitsIcEENS1_IcEEEEN10PolisCacos8InfoCacoEEEPvEEEEEC2B8ue170006ERSE_b, symObjAddr: 0x5A90, symBinAddr: 0x1000062A0, symSize: 0x30 }
  - { offsetInCU: 0x22574, offset: 0x22574, size: 0x8, addend: 0x0, symName: __ZNSt3__110unique_ptrINS_11__hash_nodeINS_17__hash_value_typeINS_12basic_stringIcNS_11char_traitsIcEENS_9allocatorIcEEEEN10PolisCacos8InfoCacoEEEPvEENS_22__hash_node_destructorINS6_ISD_EEEEEC2B8ue170006ILb1EvEEPSD_NS_16__dependent_typeINS_27__unique_ptr_deleter_sfinaeISG_EEXT_EE20__good_rval_ref_typeE, symObjAddr: 0x5AC0, symBinAddr: 0x1000062D0, symSize: 0x40 }
  - { offsetInCU: 0x225C5, offset: 0x225C5, size: 0x8, addend: 0x0, symName: __ZNSt3__117__compressed_pairIPNS_11__hash_nodeINS_17__hash_value_typeINS_12basic_stringIcNS_11char_traitsIcEENS_9allocatorIcEEEEN10PolisCacos8InfoCacoEEEPvEENS_22__hash_node_destructorINS6_ISD_EEEEEC1B8ue170006IRSE_SH_EEOT_OT0_, symObjAddr: 0x5B00, symBinAddr: 0x100006310, symSize: 0x30 }
  - { offsetInCU: 0x2261D, offset: 0x2261D, size: 0x8, addend: 0x0, symName: __ZNSt3__117__compressed_pairIPNS_11__hash_nodeINS_17__hash_value_typeINS_12basic_stringIcNS_11char_traitsIcEENS_9allocatorIcEEEEN10PolisCacos8InfoCacoEEEPvEENS_22__hash_node_destructorINS6_ISD_EEEEEC2B8ue170006IRSE_SH_EEOT_OT0_, symObjAddr: 0x5B30, symBinAddr: 0x100006340, symSize: 0x40 }
  - { offsetInCU: 0x22675, offset: 0x22675, size: 0x8, addend: 0x0, symName: __ZNSt3__122__compressed_pair_elemIPNS_11__hash_nodeINS_17__hash_value_typeINS_12basic_stringIcNS_11char_traitsIcEENS_9allocatorIcEEEEN10PolisCacos8InfoCacoEEEPvEELi0ELb0EEC2B8ue170006IRSE_vEEOT_, symObjAddr: 0x5B70, symBinAddr: 0x100006380, symSize: 0x20 }
  - { offsetInCU: 0x226B7, offset: 0x226B7, size: 0x8, addend: 0x0, symName: __ZNSt3__122__compressed_pair_elemINS_22__hash_node_destructorINS_9allocatorINS_11__hash_nodeINS_17__hash_value_typeINS_12basic_stringIcNS_11char_traitsIcEENS2_IcEEEEN10PolisCacos8InfoCacoEEEPvEEEEEELi1ELb0EEC2B8ue170006ISG_vEEOT_, symObjAddr: 0x5B90, symBinAddr: 0x1000063A0, symSize: 0x30 }
  - { offsetInCU: 0x226F9, offset: 0x226F9, size: 0x8, addend: 0x0, symName: __ZNSt3__19allocatorINS_11__hash_nodeINS_17__hash_value_typeINS_12basic_stringIcNS_11char_traitsIcEENS0_IcEEEEN10PolisCacos8InfoCacoEEEPvEEE9constructB8ue170006INS_4pairIKS7_S9_EEJSH_EEEvPT_DpOT0_, symObjAddr: 0x5BC0, symBinAddr: 0x1000063D0, symSize: 0x30 }
  - { offsetInCU: 0x2274F, offset: 0x2274F, size: 0x8, addend: 0x0, symName: __ZNSt3__14pairIKNS_12basic_stringIcNS_11char_traitsIcEENS_9allocatorIcEEEEN10PolisCacos8InfoCacoEEC1B8ue170006EOSA_, symObjAddr: 0x5BF0, symBinAddr: 0x100006400, symSize: 0x30 }
  - { offsetInCU: 0x22784, offset: 0x22784, size: 0x8, addend: 0x0, symName: __ZNSt3__14pairIKNS_12basic_stringIcNS_11char_traitsIcEENS_9allocatorIcEEEEN10PolisCacos8InfoCacoEEC2B8ue170006EOSA_, symObjAddr: 0x5C20, symBinAddr: 0x100006430, symSize: 0x40 }
  - { offsetInCU: 0x227BF, offset: 0x227BF, size: 0x8, addend: 0x0, symName: __ZN10PolisCacos8InfoCacoC1EOS0_, symObjAddr: 0x5C60, symBinAddr: 0x100006470, symSize: 0x30 }
  - { offsetInCU: 0x227F4, offset: 0x227F4, size: 0x8, addend: 0x0, symName: __ZN10PolisCacos8InfoCacoC2EOS0_, symObjAddr: 0x5C90, symBinAddr: 0x1000064A0, symSize: 0x40 }
  - { offsetInCU: 0x22829, offset: 0x22829, size: 0x8, addend: 0x0, symName: __ZNSt3__14listINS_12basic_stringIcNS_11char_traitsIcEENS_9allocatorIcEEEENS4_IS6_EEEC1EOS8_, symObjAddr: 0x5CD0, symBinAddr: 0x1000064E0, symSize: 0x30 }
  - { offsetInCU: 0x22864, offset: 0x22864, size: 0x8, addend: 0x0, symName: __ZNSt3__14listINS_12basic_stringIcNS_11char_traitsIcEENS_9allocatorIcEEEENS4_IS6_EEEC2EOS8_, symObjAddr: 0x5D00, symBinAddr: 0x100006510, symSize: 0x70 }
  - { offsetInCU: 0x2289F, offset: 0x2289F, size: 0x8, addend: 0x0, symName: __ZNSt3__110__list_impINS_12basic_stringIcNS_11char_traitsIcEENS_9allocatorIcEEEENS4_IS6_EEEC2EONS4_INS_11__list_nodeIS6_PvEEEE, symObjAddr: 0x5D70, symBinAddr: 0x100006580, symSize: 0x60 }
  - { offsetInCU: 0x228DA, offset: 0x228DA, size: 0x8, addend: 0x0, symName: __ZNSt3__14listINS_12basic_stringIcNS_11char_traitsIcEENS_9allocatorIcEEEENS4_IS6_EEE6spliceENS_21__list_const_iteratorIS6_PvEERS8_, symObjAddr: 0x5DD0, symBinAddr: 0x1000065E0, symSize: 0xA0 }
  - { offsetInCU: 0x2294C, offset: 0x2294C, size: 0x8, addend: 0x0, symName: __ZNSt3__121__list_const_iteratorINS_12basic_stringIcNS_11char_traitsIcEENS_9allocatorIcEEEEPvEC1B8ue170006ERKNS_15__list_iteratorIS6_S7_EE, symObjAddr: 0x5E70, symBinAddr: 0x100006680, symSize: 0x30 }
  - { offsetInCU: 0x2298B, offset: 0x2298B, size: 0x8, addend: 0x0, symName: __ZNSt3__117__compressed_pairImNS_9allocatorINS_11__list_nodeINS_12basic_stringIcNS_11char_traitsIcEENS1_IcEEEEPvEEEEEC1B8ue170006IiSA_EEOT_OT0_, symObjAddr: 0x5EA0, symBinAddr: 0x1000066B0, symSize: 0x30 }
  - { offsetInCU: 0x229E3, offset: 0x229E3, size: 0x8, addend: 0x0, symName: __ZNSt3__117__compressed_pairImNS_9allocatorINS_11__list_nodeINS_12basic_stringIcNS_11char_traitsIcEENS1_IcEEEEPvEEEEEC2B8ue170006IiSA_EEOT_OT0_, symObjAddr: 0x5ED0, symBinAddr: 0x1000066E0, symSize: 0x40 }
  - { offsetInCU: 0x22A3B, offset: 0x22A3B, size: 0x8, addend: 0x0, symName: __ZNSt3__122__compressed_pair_elemINS_9allocatorINS_11__list_nodeINS_12basic_stringIcNS_11char_traitsIcEENS1_IcEEEEPvEEEELi1ELb1EEC2B8ue170006ISA_vEEOT_, symObjAddr: 0x5F10, symBinAddr: 0x100006720, symSize: 0x10 }
  - { offsetInCU: 0x22A7D, offset: 0x22A7D, size: 0x8, addend: 0x0, symName: __ZNKSt3__14listINS_12basic_stringIcNS_11char_traitsIcEENS_9allocatorIcEEEENS4_IS6_EEE5emptyB8ue170006Ev, symObjAddr: 0x5F20, symBinAddr: 0x100006730, symSize: 0x20 }
  - { offsetInCU: 0x22AA3, offset: 0x22AA3, size: 0x8, addend: 0x0, symName: __ZNSt3__110__list_impINS_12basic_stringIcNS_11char_traitsIcEENS_9allocatorIcEEEENS4_IS6_EEE14__unlink_nodesEPNS_16__list_node_baseIS6_PvEESC_, symObjAddr: 0x5F40, symBinAddr: 0x100006750, symSize: 0x40 }
  - { offsetInCU: 0x22AD8, offset: 0x22AD8, size: 0x8, addend: 0x0, symName: __ZNSt3__14listINS_12basic_stringIcNS_11char_traitsIcEENS_9allocatorIcEEEENS4_IS6_EEE12__link_nodesEPNS_16__list_node_baseIS6_PvEESC_SC_, symObjAddr: 0x5F80, symBinAddr: 0x100006790, symSize: 0x50 }
  - { offsetInCU: 0x22B1C, offset: 0x22B1C, size: 0x8, addend: 0x0, symName: __ZNKSt3__110__list_impINS_12basic_stringIcNS_11char_traitsIcEENS_9allocatorIcEEEENS4_IS6_EEE5emptyB8ue170006Ev, symObjAddr: 0x5FD0, symBinAddr: 0x1000067E0, symSize: 0x30 }
  - { offsetInCU: 0x22B42, offset: 0x22B42, size: 0x8, addend: 0x0, symName: __ZNKSt3__110__list_impINS_12basic_stringIcNS_11char_traitsIcEENS_9allocatorIcEEEENS4_IS6_EEE4__szB8ue170006Ev, symObjAddr: 0x6000, symBinAddr: 0x100006810, symSize: 0x20 }
  - { offsetInCU: 0x22B68, offset: 0x22B68, size: 0x8, addend: 0x0, symName: __ZNKSt3__117__compressed_pairImNS_9allocatorINS_11__list_nodeINS_12basic_stringIcNS_11char_traitsIcEENS1_IcEEEEPvEEEEE5firstB8ue170006Ev, symObjAddr: 0x6020, symBinAddr: 0x100006830, symSize: 0x20 }
  - { offsetInCU: 0x22B8E, offset: 0x22B8E, size: 0x8, addend: 0x0, symName: __ZNSt3__121__list_const_iteratorINS_12basic_stringIcNS_11char_traitsIcEENS_9allocatorIcEEEEPvEC2B8ue170006ERKNS_15__list_iteratorIS6_S7_EE, symObjAddr: 0x6040, symBinAddr: 0x100006850, symSize: 0x20 }
  - { offsetInCU: 0x22BC7, offset: 0x22BC7, size: 0x8, addend: 0x0, symName: __ZNSt3__117__hash_value_typeINS_12basic_stringIcNS_11char_traitsIcEENS_9allocatorIcEEEEN10PolisCacos8InfoCacoEE11__get_valueB8ue170006Ev, symObjAddr: 0x6060, symBinAddr: 0x100006870, symSize: 0x20 }
  - { offsetInCU: 0x22BED, offset: 0x22BED, size: 0x8, addend: 0x0, symName: __ZNSt3__117__compressed_pairIPNS_11__hash_nodeINS_17__hash_value_typeINS_12basic_stringIcNS_11char_traitsIcEENS_9allocatorIcEEEEN10PolisCacos8InfoCacoEEEPvEENS_22__hash_node_destructorINS6_ISD_EEEEE6secondB8ue170006Ev, symObjAddr: 0x60B0, symBinAddr: 0x1000068C0, symSize: 0x20 }
  - { offsetInCU: 0x22C13, offset: 0x22C13, size: 0x8, addend: 0x0, symName: __ZNSt3__122__compressed_pair_elemINS_22__hash_node_destructorINS_9allocatorINS_11__hash_nodeINS_17__hash_value_typeINS_12basic_stringIcNS_11char_traitsIcEENS2_IcEEEEN10PolisCacos8InfoCacoEEEPvEEEEEELi1ELb0EE5__getB8ue170006Ev, symObjAddr: 0x60D0, symBinAddr: 0x1000068E0, symSize: 0x10 }
  - { offsetInCU: 0x22C39, offset: 0x22C39, size: 0x8, addend: 0x0, symName: __ZNSt3__117__compressed_pairImNS_22__unordered_map_hasherINS_12basic_stringIcNS_11char_traitsIcEENS_9allocatorIcEEEENS_17__hash_value_typeIS7_N10PolisCacos8InfoCacoEEENS_4hashIS7_EENS_8equal_toIS7_EELb1EEEE5firstB8ue170006Ev, symObjAddr: 0x60E0, symBinAddr: 0x1000068F0, symSize: 0x20 }
  - { offsetInCU: 0x22C5F, offset: 0x22C5F, size: 0x8, addend: 0x0, symName: __ZNSt3__117__compressed_pairIfNS_21__unordered_map_equalINS_12basic_stringIcNS_11char_traitsIcEENS_9allocatorIcEEEENS_17__hash_value_typeIS7_N10PolisCacos8InfoCacoEEENS_8equal_toIS7_EENS_4hashIS7_EELb1EEEE5firstB8ue170006Ev, symObjAddr: 0x6100, symBinAddr: 0x100006910, symSize: 0x20 }
  - { offsetInCU: 0x22C85, offset: 0x22C85, size: 0x8, addend: 0x0, symName: __ZNSt3__122__compressed_pair_elemIfLi0ELb0EE5__getB8ue170006Ev, symObjAddr: 0x6120, symBinAddr: 0x100006930, symSize: 0x10 }
  - { offsetInCU: 0x22CAB, offset: 0x22CAB, size: 0x8, addend: 0x0, symName: __ZNSt3__112__hash_tableINS_17__hash_value_typeINS_12basic_stringIcNS_11char_traitsIcEENS_9allocatorIcEEEEN10PolisCacos8InfoCacoEEENS_22__unordered_map_hasherIS7_SA_NS_4hashIS7_EENS_8equal_toIS7_EELb1EEENS_21__unordered_map_equalIS7_SA_SF_SD_Lb1EEENS5_ISA_EEE8__rehashILb1EEEvm, symObjAddr: 0x6130, symBinAddr: 0x100006940, symSize: 0x230 }
  - { offsetInCU: 0x22CFB, offset: 0x22CFB, size: 0x8, addend: 0x0, symName: __ZNSt3__112__hash_tableINS_17__hash_value_typeINS_12basic_stringIcNS_11char_traitsIcEENS_9allocatorIcEEEEN10PolisCacos8InfoCacoEEENS_22__unordered_map_hasherIS7_SA_NS_4hashIS7_EENS_8equal_toIS7_EELb1EEENS_21__unordered_map_equalIS7_SA_SF_SD_Lb1EEENS5_ISA_EEE11__do_rehashILb1EEEvm, symObjAddr: 0x6360, symBinAddr: 0x100006B70, symSize: 0x250 }
  - { offsetInCU: 0x22DDE, offset: 0x22DDE, size: 0x8, addend: 0x0, symName: __ZNSt3__110unique_ptrIA_PNS_16__hash_node_baseIPNS_11__hash_nodeINS_17__hash_value_typeINS_12basic_stringIcNS_11char_traitsIcEENS_9allocatorIcEEEEN10PolisCacos8InfoCacoEEEPvEEEENS_25__bucket_list_deallocatorINS7_ISH_EEEEE11get_deleterB8ue170006Ev, symObjAddr: 0x6610, symBinAddr: 0x100006E20, symSize: 0x20 }
  - { offsetInCU: 0x22E04, offset: 0x22E04, size: 0x8, addend: 0x0, symName: __ZNSt3__125__bucket_list_deallocatorINS_9allocatorIPNS_16__hash_node_baseIPNS_11__hash_nodeINS_17__hash_value_typeINS_12basic_stringIcNS_11char_traitsIcEENS1_IcEEEEN10PolisCacos8InfoCacoEEEPvEEEEEEE7__allocB8ue170006Ev, symObjAddr: 0x6630, symBinAddr: 0x100006E40, symSize: 0x20 }
  - { offsetInCU: 0x22E2A, offset: 0x22E2A, size: 0x8, addend: 0x0, symName: __ZNSt3__110unique_ptrIA_PNS_16__hash_node_baseIPNS_11__hash_nodeINS_17__hash_value_typeINS_12basic_stringIcNS_11char_traitsIcEENS_9allocatorIcEEEEN10PolisCacos8InfoCacoEEEPvEEEENS_25__bucket_list_deallocatorINS7_ISH_EEEEE5resetB8ue170006IPSH_EENS_9enable_ifIXsr28_CheckArrayPointerConversionIT_EE5valueEvE4typeESQ_, symObjAddr: 0x6650, symBinAddr: 0x100006E60, symSize: 0x70 }
  - { offsetInCU: 0x22E77, offset: 0x22E77, size: 0x8, addend: 0x0, symName: __ZNSt3__116allocator_traitsINS_9allocatorIPNS_16__hash_node_baseIPNS_11__hash_nodeINS_17__hash_value_typeINS_12basic_stringIcNS_11char_traitsIcEENS1_IcEEEEN10PolisCacos8InfoCacoEEEPvEEEEEEE8allocateB8ue170006ERSI_m, symObjAddr: 0x66C0, symBinAddr: 0x100006ED0, symSize: 0x30 }
  - { offsetInCU: 0x22EAA, offset: 0x22EAA, size: 0x8, addend: 0x0, symName: __ZNSt3__125__bucket_list_deallocatorINS_9allocatorIPNS_16__hash_node_baseIPNS_11__hash_nodeINS_17__hash_value_typeINS_12basic_stringIcNS_11char_traitsIcEENS1_IcEEEEN10PolisCacos8InfoCacoEEEPvEEEEEEE4sizeB8ue170006Ev, symObjAddr: 0x66F0, symBinAddr: 0x100006F00, symSize: 0x20 }
  - { offsetInCU: 0x22ED0, offset: 0x22ED0, size: 0x8, addend: 0x0, symName: __ZNSt3__117__compressed_pairIPPNS_16__hash_node_baseIPNS_11__hash_nodeINS_17__hash_value_typeINS_12basic_stringIcNS_11char_traitsIcEENS_9allocatorIcEEEEN10PolisCacos8InfoCacoEEEPvEEEENS_25__bucket_list_deallocatorINS7_ISH_EEEEE6secondB8ue170006Ev, symObjAddr: 0x6710, symBinAddr: 0x100006F20, symSize: 0x20 }
  - { offsetInCU: 0x22EF6, offset: 0x22EF6, size: 0x8, addend: 0x0, symName: __ZNSt3__122__compressed_pair_elemINS_25__bucket_list_deallocatorINS_9allocatorIPNS_16__hash_node_baseIPNS_11__hash_nodeINS_17__hash_value_typeINS_12basic_stringIcNS_11char_traitsIcEENS2_IcEEEEN10PolisCacos8InfoCacoEEEPvEEEEEEEELi1ELb0EE5__getB8ue170006Ev, symObjAddr: 0x6730, symBinAddr: 0x100006F40, symSize: 0x10 }
  - { offsetInCU: 0x22F1C, offset: 0x22F1C, size: 0x8, addend: 0x0, symName: __ZNSt3__117__compressed_pairImNS_9allocatorIPNS_16__hash_node_baseIPNS_11__hash_nodeINS_17__hash_value_typeINS_12basic_stringIcNS_11char_traitsIcEENS1_IcEEEEN10PolisCacos8InfoCacoEEEPvEEEEEEE6secondB8ue170006Ev, symObjAddr: 0x6740, symBinAddr: 0x100006F50, symSize: 0x20 }
  - { offsetInCU: 0x22F42, offset: 0x22F42, size: 0x8, addend: 0x0, symName: __ZNSt3__122__compressed_pair_elemINS_9allocatorIPNS_16__hash_node_baseIPNS_11__hash_nodeINS_17__hash_value_typeINS_12basic_stringIcNS_11char_traitsIcEENS1_IcEEEEN10PolisCacos8InfoCacoEEEPvEEEEEELi1ELb1EE5__getB8ue170006Ev, symObjAddr: 0x6760, symBinAddr: 0x100006F70, symSize: 0x10 }
  - { offsetInCU: 0x22F68, offset: 0x22F68, size: 0x8, addend: 0x0, symName: __ZNSt3__117__compressed_pairIPPNS_16__hash_node_baseIPNS_11__hash_nodeINS_17__hash_value_typeINS_12basic_stringIcNS_11char_traitsIcEENS_9allocatorIcEEEEN10PolisCacos8InfoCacoEEEPvEEEENS_25__bucket_list_deallocatorINS7_ISH_EEEEE5firstB8ue170006Ev, symObjAddr: 0x6770, symBinAddr: 0x100006F80, symSize: 0x20 }
  - { offsetInCU: 0x22F8E, offset: 0x22F8E, size: 0x8, addend: 0x0, symName: __ZNSt3__125__bucket_list_deallocatorINS_9allocatorIPNS_16__hash_node_baseIPNS_11__hash_nodeINS_17__hash_value_typeINS_12basic_stringIcNS_11char_traitsIcEENS1_IcEEEEN10PolisCacos8InfoCacoEEEPvEEEEEEEclB8ue170006EPSH_, symObjAddr: 0x6790, symBinAddr: 0x100006FA0, symSize: 0x50 }
  - { offsetInCU: 0x22FC3, offset: 0x22FC3, size: 0x8, addend: 0x0, symName: __ZNSt3__122__compressed_pair_elemIPPNS_16__hash_node_baseIPNS_11__hash_nodeINS_17__hash_value_typeINS_12basic_stringIcNS_11char_traitsIcEENS_9allocatorIcEEEEN10PolisCacos8InfoCacoEEEPvEEEELi0ELb0EE5__getB8ue170006Ev, symObjAddr: 0x67E0, symBinAddr: 0x100006FF0, symSize: 0x10 }
  - { offsetInCU: 0x22FE9, offset: 0x22FE9, size: 0x8, addend: 0x0, symName: __ZNSt3__116allocator_traitsINS_9allocatorIPNS_16__hash_node_baseIPNS_11__hash_nodeINS_17__hash_value_typeINS_12basic_stringIcNS_11char_traitsIcEENS1_IcEEEEN10PolisCacos8InfoCacoEEEPvEEEEEEE10deallocateB8ue170006ERSI_PSH_m, symObjAddr: 0x67F0, symBinAddr: 0x100007000, symSize: 0x30 }
  - { offsetInCU: 0x2302B, offset: 0x2302B, size: 0x8, addend: 0x0, symName: __ZNSt3__19allocatorIPNS_16__hash_node_baseIPNS_11__hash_nodeINS_17__hash_value_typeINS_12basic_stringIcNS_11char_traitsIcEENS0_IcEEEEN10PolisCacos8InfoCacoEEEPvEEEEE10deallocateB8ue170006EPSG_m, symObjAddr: 0x6820, symBinAddr: 0x100007030, symSize: 0x40 }
  - { offsetInCU: 0x2306D, offset: 0x2306D, size: 0x8, addend: 0x0, symName: __ZNSt3__19allocatorIPNS_16__hash_node_baseIPNS_11__hash_nodeINS_17__hash_value_typeINS_12basic_stringIcNS_11char_traitsIcEENS0_IcEEEEN10PolisCacos8InfoCacoEEEPvEEEEE8allocateB8ue170006Em, symObjAddr: 0x6860, symBinAddr: 0x100007070, symSize: 0x50 }
  - { offsetInCU: 0x230AC, offset: 0x230AC, size: 0x8, addend: 0x0, symName: __ZNSt3__116allocator_traitsINS_9allocatorIPNS_16__hash_node_baseIPNS_11__hash_nodeINS_17__hash_value_typeINS_12basic_stringIcNS_11char_traitsIcEENS1_IcEEEEN10PolisCacos8InfoCacoEEEPvEEEEEEE8max_sizeB8ue170006ISI_vEEmRKSI_, symObjAddr: 0x68B0, symBinAddr: 0x1000070C0, symSize: 0x20 }
  - { offsetInCU: 0x230DA, offset: 0x230DA, size: 0x8, addend: 0x0, symName: __ZNKSt3__19allocatorIPNS_16__hash_node_baseIPNS_11__hash_nodeINS_17__hash_value_typeINS_12basic_stringIcNS_11char_traitsIcEENS0_IcEEEEN10PolisCacos8InfoCacoEEEPvEEEEE8max_sizeB8ue170006Ev, symObjAddr: 0x68D0, symBinAddr: 0x1000070E0, symSize: 0x20 }
  - { offsetInCU: 0x23100, offset: 0x23100, size: 0x8, addend: 0x0, symName: __ZNSt3__117__compressed_pairImNS_9allocatorIPNS_16__hash_node_baseIPNS_11__hash_nodeINS_17__hash_value_typeINS_12basic_stringIcNS_11char_traitsIcEENS1_IcEEEEN10PolisCacos8InfoCacoEEEPvEEEEEEE5firstB8ue170006Ev, symObjAddr: 0x68F0, symBinAddr: 0x100007100, symSize: 0x20 }
  - { offsetInCU: 0x23130, offset: 0x23130, size: 0x8, addend: 0x0, symName: __ZNKSt3__16__lessIvvEclB8ue170006ImmEEbRKT_RKT0_, symObjAddr: 0x6980, symBinAddr: 0x100007190, symSize: 0x30 }
  - { offsetInCU: 0x23184, offset: 0x23184, size: 0x8, addend: 0x0, symName: __ZNSt3__122__compressed_pair_elemINS_16__hash_node_baseIPNS_11__hash_nodeINS_17__hash_value_typeINS_12basic_stringIcNS_11char_traitsIcEENS_9allocatorIcEEEEN10PolisCacos8InfoCacoEEEPvEEEELi0ELb0EE5__getB8ue170006Ev, symObjAddr: 0x69B0, symBinAddr: 0x1000071C0, symSize: 0x10 }
  - { offsetInCU: 0x231AA, offset: 0x231AA, size: 0x8, addend: 0x0, symName: __ZNKSt3__117__compressed_pairIPNS_11__hash_nodeINS_17__hash_value_typeINS_12basic_stringIcNS_11char_traitsIcEENS_9allocatorIcEEEEN10PolisCacos8InfoCacoEEEPvEENS_22__hash_node_destructorINS6_ISD_EEEEE5firstB8ue170006Ev, symObjAddr: 0x69C0, symBinAddr: 0x1000071D0, symSize: 0x20 }
  - { offsetInCU: 0x231D0, offset: 0x231D0, size: 0x8, addend: 0x0, symName: __ZNKSt3__122__compressed_pair_elemIPNS_11__hash_nodeINS_17__hash_value_typeINS_12basic_stringIcNS_11char_traitsIcEENS_9allocatorIcEEEEN10PolisCacos8InfoCacoEEEPvEELi0ELb0EE5__getB8ue170006Ev, symObjAddr: 0x69E0, symBinAddr: 0x1000071F0, symSize: 0x10 }
  - { offsetInCU: 0x231F6, offset: 0x231F6, size: 0x8, addend: 0x0, symName: __ZNSt3__117__compressed_pairIPNS_11__hash_nodeINS_17__hash_value_typeINS_12basic_stringIcNS_11char_traitsIcEENS_9allocatorIcEEEEN10PolisCacos8InfoCacoEEEPvEENS_22__hash_node_destructorINS6_ISD_EEEEE5firstB8ue170006Ev, symObjAddr: 0x69F0, symBinAddr: 0x100007200, symSize: 0x20 }
  - { offsetInCU: 0x2321C, offset: 0x2321C, size: 0x8, addend: 0x0, symName: __ZNSt3__122__compressed_pair_elemIPNS_11__hash_nodeINS_17__hash_value_typeINS_12basic_stringIcNS_11char_traitsIcEENS_9allocatorIcEEEEN10PolisCacos8InfoCacoEEEPvEELi0ELb0EE5__getB8ue170006Ev, symObjAddr: 0x6A10, symBinAddr: 0x100007220, symSize: 0x10 }
  - { offsetInCU: 0x23242, offset: 0x23242, size: 0x8, addend: 0x0, symName: __ZNSt3__110unique_ptrINS_11__hash_nodeINS_17__hash_value_typeINS_12basic_stringIcNS_11char_traitsIcEENS_9allocatorIcEEEEN10PolisCacos8InfoCacoEEEPvEENS_22__hash_node_destructorINS6_ISD_EEEEED2B8ue170006Ev, symObjAddr: 0x6A20, symBinAddr: 0x100007230, symSize: 0x20 }
  - { offsetInCU: 0x2326C, offset: 0x2326C, size: 0x8, addend: 0x0, symName: __ZNSt3__110unique_ptrINS_11__hash_nodeINS_17__hash_value_typeINS_12basic_stringIcNS_11char_traitsIcEENS_9allocatorIcEEEEN10PolisCacos8InfoCacoEEEPvEENS_22__hash_node_destructorINS6_ISD_EEEEE5resetB8ue170006EPSD_, symObjAddr: 0x6A40, symBinAddr: 0x100007250, symSize: 0x70 }
  - { offsetInCU: 0x232B0, offset: 0x232B0, size: 0x8, addend: 0x0, symName: __ZNSt3__122__hash_node_destructorINS_9allocatorINS_11__hash_nodeINS_17__hash_value_typeINS_12basic_stringIcNS_11char_traitsIcEENS1_IcEEEEN10PolisCacos8InfoCacoEEEPvEEEEEclB8ue170006EPSD_, symObjAddr: 0x6AB0, symBinAddr: 0x1000072C0, symSize: 0x90 }
  - { offsetInCU: 0x232E5, offset: 0x232E5, size: 0x8, addend: 0x0, symName: __ZNSt3__116allocator_traitsINS_9allocatorINS_11__hash_nodeINS_17__hash_value_typeINS_12basic_stringIcNS_11char_traitsIcEENS1_IcEEEEN10PolisCacos8InfoCacoEEEPvEEEEE7destroyB8ue170006INS_4pairIKS8_SA_EEvvEEvRSE_PT_, symObjAddr: 0x6B40, symBinAddr: 0x100007350, symSize: 0x20 }
  - { offsetInCU: 0x23320, offset: 0x23320, size: 0x8, addend: 0x0, symName: __ZNSt3__116allocator_traitsINS_9allocatorINS_11__hash_nodeINS_17__hash_value_typeINS_12basic_stringIcNS_11char_traitsIcEENS1_IcEEEEN10PolisCacos8InfoCacoEEEPvEEEEE10deallocateB8ue170006ERSE_PSD_m, symObjAddr: 0x6B60, symBinAddr: 0x100007370, symSize: 0x30 }
  - { offsetInCU: 0x23362, offset: 0x23362, size: 0x8, addend: 0x0, symName: __ZNSt3__19allocatorINS_11__hash_nodeINS_17__hash_value_typeINS_12basic_stringIcNS_11char_traitsIcEENS0_IcEEEEN10PolisCacos8InfoCacoEEEPvEEE10deallocateB8ue170006EPSC_m, symObjAddr: 0x6B90, symBinAddr: 0x1000073A0, symSize: 0x50 }
  - { offsetInCU: 0x233A4, offset: 0x233A4, size: 0x8, addend: 0x0, symName: __ZNSt3__14pairINS_15__hash_iteratorIPNS_11__hash_nodeINS_17__hash_value_typeINS_12basic_stringIcNS_11char_traitsIcEENS_9allocatorIcEEEEN10PolisCacos8InfoCacoEEEPvEEEEbEC2B8ue170006ISG_RbLSD_0EEEOT_OT0_, symObjAddr: 0x6BE0, symBinAddr: 0x1000073F0, symSize: 0x30 }
  - { offsetInCU: 0x23402, offset: 0x23402, size: 0x8, addend: 0x0, symName: __ZNSt3__14pairINS_19__hash_map_iteratorINS_15__hash_iteratorIPNS_11__hash_nodeINS_17__hash_value_typeINS_12basic_stringIcNS_11char_traitsIcEENS_9allocatorIcEEEEN10PolisCacos8InfoCacoEEEPvEEEEEEbEC2B8ue170006ISH_bLSE_0EEEONS0_IT_T0_EE, symObjAddr: 0x6C10, symBinAddr: 0x100007420, symSize: 0x50 }
  - { offsetInCU: 0x23453, offset: 0x23453, size: 0x8, addend: 0x0, symName: __ZNSt3__14pairIKNS_12basic_stringIcNS_11char_traitsIcEENS_9allocatorIcEEEEN10PolisCacos8InfoCacoEEC2B8ue170006IRS7_RS9_LPv0EEEOT_OT0_, symObjAddr: 0x6C60, symBinAddr: 0x100007470, symSize: 0x60 }
  - { offsetInCU: 0x234BC, offset: 0x234BC, size: 0x8, addend: 0x0, symName: __ZN10PolisCacos8InfoCacoC1ERKS0_, symObjAddr: 0x6CC0, symBinAddr: 0x1000074D0, symSize: 0x30 }
  - { offsetInCU: 0x234F1, offset: 0x234F1, size: 0x8, addend: 0x0, symName: __ZN10PolisCacos8InfoCacoC2ERKS0_, symObjAddr: 0x6CF0, symBinAddr: 0x100007500, symSize: 0x40 }
  - { offsetInCU: 0x23526, offset: 0x23526, size: 0x8, addend: 0x0, symName: __ZNSt3__14listINS_12basic_stringIcNS_11char_traitsIcEENS_9allocatorIcEEEENS4_IS6_EEEC1ERKS8_, symObjAddr: 0x6D30, symBinAddr: 0x100007540, symSize: 0x30 }
  - { offsetInCU: 0x23561, offset: 0x23561, size: 0x8, addend: 0x0, symName: __ZNSt3__14listINS_12basic_stringIcNS_11char_traitsIcEENS_9allocatorIcEEEENS4_IS6_EEEC2ERKS8_, symObjAddr: 0x6D60, symBinAddr: 0x100007570, symSize: 0xE0 }
  - { offsetInCU: 0x235C8, offset: 0x235C8, size: 0x8, addend: 0x0, symName: __ZNSt3__116allocator_traitsINS_9allocatorINS_11__list_nodeINS_12basic_stringIcNS_11char_traitsIcEENS1_IcEEEEPvEEEEE37select_on_container_copy_constructionB8ue170006ISA_vvEESA_RKSA_, symObjAddr: 0x6E40, symBinAddr: 0x100007650, symSize: 0x10 }
  - { offsetInCU: 0x235F7, offset: 0x235F7, size: 0x8, addend: 0x0, symName: __ZNKSt3__110__list_impINS_12basic_stringIcNS_11char_traitsIcEENS_9allocatorIcEEEENS4_IS6_EEE12__node_allocB8ue170006Ev, symObjAddr: 0x6E50, symBinAddr: 0x100007660, symSize: 0x20 }
  - { offsetInCU: 0x2361D, offset: 0x2361D, size: 0x8, addend: 0x0, symName: __ZNKSt3__14listINS_12basic_stringIcNS_11char_traitsIcEENS_9allocatorIcEEEENS4_IS6_EEE5beginB8ue170006Ev, symObjAddr: 0x6E70, symBinAddr: 0x100007680, symSize: 0x30 }
  - { offsetInCU: 0x23643, offset: 0x23643, size: 0x8, addend: 0x0, symName: __ZNKSt3__14listINS_12basic_stringIcNS_11char_traitsIcEENS_9allocatorIcEEEENS4_IS6_EEE3endB8ue170006Ev, symObjAddr: 0x6EA0, symBinAddr: 0x1000076B0, symSize: 0x30 }
  - { offsetInCU: 0x23669, offset: 0x23669, size: 0x8, addend: 0x0, symName: __ZNKSt3__121__list_const_iteratorINS_12basic_stringIcNS_11char_traitsIcEENS_9allocatorIcEEEEPvEdeB8ue170006Ev, symObjAddr: 0x6F00, symBinAddr: 0x100007710, symSize: 0x30 }
  - { offsetInCU: 0x2368F, offset: 0x2368F, size: 0x8, addend: 0x0, symName: __ZNSt3__121__list_const_iteratorINS_12basic_stringIcNS_11char_traitsIcEENS_9allocatorIcEEEEPvEppB8ue170006Ev, symObjAddr: 0x6F30, symBinAddr: 0x100007740, symSize: 0x20 }
  - { offsetInCU: 0x236B5, offset: 0x236B5, size: 0x8, addend: 0x0, symName: __ZNSt3__110__list_impINS_12basic_stringIcNS_11char_traitsIcEENS_9allocatorIcEEEENS4_IS6_EEED2Ev, symObjAddr: 0x6F50, symBinAddr: 0x100007760, symSize: 0x20 }
  - { offsetInCU: 0x236E1, offset: 0x236E1, size: 0x8, addend: 0x0, symName: __ZNKSt3__117__compressed_pairImNS_9allocatorINS_11__list_nodeINS_12basic_stringIcNS_11char_traitsIcEENS1_IcEEEEPvEEEEE6secondB8ue170006Ev, symObjAddr: 0x6F70, symBinAddr: 0x100007780, symSize: 0x20 }
  - { offsetInCU: 0x23707, offset: 0x23707, size: 0x8, addend: 0x0, symName: __ZNKSt3__122__compressed_pair_elemINS_9allocatorINS_11__list_nodeINS_12basic_stringIcNS_11char_traitsIcEENS1_IcEEEEPvEEEELi1ELb1EE5__getB8ue170006Ev, symObjAddr: 0x6F90, symBinAddr: 0x1000077A0, symSize: 0x10 }
  - { offsetInCU: 0x2372D, offset: 0x2372D, size: 0x8, addend: 0x0, symName: __ZNKSt3__110__list_impINS_12basic_stringIcNS_11char_traitsIcEENS_9allocatorIcEEEENS4_IS6_EEE5beginB8ue170006Ev, symObjAddr: 0x6FA0, symBinAddr: 0x1000077B0, symSize: 0x30 }
  - { offsetInCU: 0x23753, offset: 0x23753, size: 0x8, addend: 0x0, symName: __ZNSt3__121__list_const_iteratorINS_12basic_stringIcNS_11char_traitsIcEENS_9allocatorIcEEEEPvEC1B8ue170006EPNS_16__list_node_baseIS6_S7_EE, symObjAddr: 0x6FD0, symBinAddr: 0x1000077E0, symSize: 0x30 }
  - { offsetInCU: 0x2378C, offset: 0x2378C, size: 0x8, addend: 0x0, symName: __ZNSt3__121__list_const_iteratorINS_12basic_stringIcNS_11char_traitsIcEENS_9allocatorIcEEEEPvEC2B8ue170006EPNS_16__list_node_baseIS6_S7_EE, symObjAddr: 0x7000, symBinAddr: 0x100007810, symSize: 0x20 }
  - { offsetInCU: 0x237C5, offset: 0x237C5, size: 0x8, addend: 0x0, symName: __ZNKSt3__110__list_impINS_12basic_stringIcNS_11char_traitsIcEENS_9allocatorIcEEEENS4_IS6_EEE3endB8ue170006Ev, symObjAddr: 0x7020, symBinAddr: 0x100007830, symSize: 0x30 }
  - { offsetInCU: 0x237EB, offset: 0x237EB, size: 0x8, addend: 0x0, symName: __ZNSt3__116__list_node_baseINS_12basic_stringIcNS_11char_traitsIcEENS_9allocatorIcEEEEPvE9__as_nodeB8ue170006Ev, symObjAddr: 0x7080, symBinAddr: 0x100007890, symSize: 0x20 }
  - { offsetInCU: 0x23811, offset: 0x23811, size: 0x8, addend: 0x0, symName: __ZNSt3__110__list_impINS_12basic_stringIcNS_11char_traitsIcEENS_9allocatorIcEEEENS4_IS6_EEE5clearEv, symObjAddr: 0x70A0, symBinAddr: 0x1000078B0, symSize: 0xD0 }
  - { offsetInCU: 0x23881, offset: 0x23881, size: 0x8, addend: 0x0, symName: __ZNSt3__116allocator_traitsINS_9allocatorINS_11__list_nodeINS_12basic_stringIcNS_11char_traitsIcEENS1_IcEEEEPvEEEEE7destroyB8ue170006IS7_vvEEvRSA_PT_, symObjAddr: 0x7170, symBinAddr: 0x100007980, symSize: 0x20 }
  - { offsetInCU: 0x238BC, offset: 0x238BC, size: 0x8, addend: 0x0, symName: __ZNSt3__14pairIKNS_12basic_stringIcNS_11char_traitsIcEENS_9allocatorIcEEEEN10PolisCacos8InfoCacoEED2Ev, symObjAddr: 0x7190, symBinAddr: 0x1000079A0, symSize: 0x30 }
  - { offsetInCU: 0x238FF, offset: 0x238FF, size: 0x8, addend: 0x0, symName: __ZNSt3__112__hash_tableINS_17__hash_value_typeINS_12basic_stringIcNS_11char_traitsIcEENS_9allocatorIcEEEENS_3mapIiS7_NS_4lessIiEENS5_INS_4pairIKiS7_EEEEEEEENS_22__unordered_map_hasherIS7_SG_NS_4hashIS7_EENS_8equal_toIS7_EELb1EEENS_21__unordered_map_equalIS7_SG_SL_SJ_Lb1EEENS5_ISG_EEE25__emplace_unique_key_argsIS7_JRKNS_21piecewise_construct_tENS_5tupleIJRKS7_EEENSV_IJEEEEEENSB_INS_15__hash_iteratorIPNS_11__hash_nodeISG_PvEEEEbEERKT_DpOT0_, symObjAddr: 0x71C0, symBinAddr: 0x1000079D0, symSize: 0x610 }
  - { offsetInCU: 0x23A07, offset: 0x23A07, size: 0x8, addend: 0x0, symName: __ZNKSt3__115__hash_iteratorIPNS_11__hash_nodeINS_17__hash_value_typeINS_12basic_stringIcNS_11char_traitsIcEENS_9allocatorIcEEEENS_3mapIiS8_NS_4lessIiEENS6_INS_4pairIKiS8_EEEEEEEEPvEEEptB8ue170006Ev, symObjAddr: 0x7810, symBinAddr: 0x100008020, symSize: 0x30 }
  - { offsetInCU: 0x23A2D, offset: 0x23A2D, size: 0x8, addend: 0x0, symName: __ZNSt3__117__hash_value_typeINS_12basic_stringIcNS_11char_traitsIcEENS_9allocatorIcEEEENS_3mapIiS6_NS_4lessIiEENS4_INS_4pairIKiS6_EEEEEEE11__get_valueB8ue170006Ev, symObjAddr: 0x7840, symBinAddr: 0x100008050, symSize: 0x20 }
  - { offsetInCU: 0x23A53, offset: 0x23A53, size: 0x8, addend: 0x0, symName: __ZNSt3__112__hash_tableINS_17__hash_value_typeINS_12basic_stringIcNS_11char_traitsIcEENS_9allocatorIcEEEENS_3mapIiS7_NS_4lessIiEENS5_INS_4pairIKiS7_EEEEEEEENS_22__unordered_map_hasherIS7_SG_NS_4hashIS7_EENS_8equal_toIS7_EELb1EEENS_21__unordered_map_equalIS7_SG_SL_SJ_Lb1EEENS5_ISG_EEE13hash_functionB8ue170006Ev, symObjAddr: 0x7860, symBinAddr: 0x100008070, symSize: 0x20 }
  - { offsetInCU: 0x23A79, offset: 0x23A79, size: 0x8, addend: 0x0, symName: __ZNKSt3__122__unordered_map_hasherINS_12basic_stringIcNS_11char_traitsIcEENS_9allocatorIcEEEENS_17__hash_value_typeIS6_NS_3mapIiS6_NS_4lessIiEENS4_INS_4pairIKiS6_EEEEEEEENS_4hashIS6_EENS_8equal_toIS6_EELb1EEclB8ue170006ERKS6_, symObjAddr: 0x7880, symBinAddr: 0x100008090, symSize: 0x30 }
  - { offsetInCU: 0x23AAE, offset: 0x23AAE, size: 0x8, addend: 0x0, symName: __ZNKSt3__112__hash_tableINS_17__hash_value_typeINS_12basic_stringIcNS_11char_traitsIcEENS_9allocatorIcEEEENS_3mapIiS7_NS_4lessIiEENS5_INS_4pairIKiS7_EEEEEEEENS_22__unordered_map_hasherIS7_SG_NS_4hashIS7_EENS_8equal_toIS7_EELb1EEENS_21__unordered_map_equalIS7_SG_SL_SJ_Lb1EEENS5_ISG_EEE12bucket_countB8ue170006Ev, symObjAddr: 0x78B0, symBinAddr: 0x1000080C0, symSize: 0x30 }
  - { offsetInCU: 0x23AD4, offset: 0x23AD4, size: 0x8, addend: 0x0, symName: __ZNKSt3__110unique_ptrIA_PNS_16__hash_node_baseIPNS_11__hash_nodeINS_17__hash_value_typeINS_12basic_stringIcNS_11char_traitsIcEENS_9allocatorIcEEEENS_3mapIiS9_NS_4lessIiEENS7_INS_4pairIKiS9_EEEEEEEEPvEEEENS_25__bucket_list_deallocatorINS7_ISN_EEEEEixB8ue170006Em, symObjAddr: 0x78E0, symBinAddr: 0x1000080F0, symSize: 0x30 }
  - { offsetInCU: 0x23B09, offset: 0x23B09, size: 0x8, addend: 0x0, symName: __ZNKSt3__116__hash_node_baseIPNS_11__hash_nodeINS_17__hash_value_typeINS_12basic_stringIcNS_11char_traitsIcEENS_9allocatorIcEEEENS_3mapIiS8_NS_4lessIiEENS6_INS_4pairIKiS8_EEEEEEEEPvEEE6__hashB8ue170006Ev, symObjAddr: 0x7910, symBinAddr: 0x100008120, symSize: 0x20 }
  - { offsetInCU: 0x23B2F, offset: 0x23B2F, size: 0x8, addend: 0x0, symName: __ZNSt3__112__hash_tableINS_17__hash_value_typeINS_12basic_stringIcNS_11char_traitsIcEENS_9allocatorIcEEEENS_3mapIiS7_NS_4lessIiEENS5_INS_4pairIKiS7_EEEEEEEENS_22__unordered_map_hasherIS7_SG_NS_4hashIS7_EENS_8equal_toIS7_EELb1EEENS_21__unordered_map_equalIS7_SG_SL_SJ_Lb1EEENS5_ISG_EEE6key_eqB8ue170006Ev, symObjAddr: 0x7930, symBinAddr: 0x100008140, symSize: 0x20 }
  - { offsetInCU: 0x23B55, offset: 0x23B55, size: 0x8, addend: 0x0, symName: __ZNKSt3__121__unordered_map_equalINS_12basic_stringIcNS_11char_traitsIcEENS_9allocatorIcEEEENS_17__hash_value_typeIS6_NS_3mapIiS6_NS_4lessIiEENS4_INS_4pairIKiS6_EEEEEEEENS_8equal_toIS6_EENS_4hashIS6_EELb1EEclB8ue170006ERKSG_RKS6_, symObjAddr: 0x7950, symBinAddr: 0x100008160, symSize: 0x40 }
  - { offsetInCU: 0x23B99, offset: 0x23B99, size: 0x8, addend: 0x0, symName: __ZNSt3__116__hash_node_baseIPNS_11__hash_nodeINS_17__hash_value_typeINS_12basic_stringIcNS_11char_traitsIcEENS_9allocatorIcEEEENS_3mapIiS8_NS_4lessIiEENS6_INS_4pairIKiS8_EEEEEEEEPvEEE8__upcastB8ue170006Ev, symObjAddr: 0x7990, symBinAddr: 0x1000081A0, symSize: 0x20 }
  - { offsetInCU: 0x23BBF, offset: 0x23BBF, size: 0x8, addend: 0x0, symName: __ZNSt3__112__hash_tableINS_17__hash_value_typeINS_12basic_stringIcNS_11char_traitsIcEENS_9allocatorIcEEEENS_3mapIiS7_NS_4lessIiEENS5_INS_4pairIKiS7_EEEEEEEENS_22__unordered_map_hasherIS7_SG_NS_4hashIS7_EENS_8equal_toIS7_EELb1EEENS_21__unordered_map_equalIS7_SG_SL_SJ_Lb1EEENS5_ISG_EEE21__construct_node_hashIRKNS_21piecewise_construct_tEJNS_5tupleIJRKS7_EEENSV_IJEEEEEENS_10unique_ptrINS_11__hash_nodeISG_PvEENS_22__hash_node_destructorINS5_IS13_EEEEEEmOT_DpOT0_, symObjAddr: 0x79B0, symBinAddr: 0x1000081C0, symSize: 0x150 }
  - { offsetInCU: 0x23C5B, offset: 0x23C5B, size: 0x8, addend: 0x0, symName: __ZNSt3__112__hash_tableINS_17__hash_value_typeINS_12basic_stringIcNS_11char_traitsIcEENS_9allocatorIcEEEENS_3mapIiS7_NS_4lessIiEENS5_INS_4pairIKiS7_EEEEEEEENS_22__unordered_map_hasherIS7_SG_NS_4hashIS7_EENS_8equal_toIS7_EELb1EEENS_21__unordered_map_equalIS7_SG_SL_SJ_Lb1EEENS5_ISG_EEE4sizeB8ue170006Ev, symObjAddr: 0x7B00, symBinAddr: 0x100008310, symSize: 0x20 }
  - { offsetInCU: 0x23C81, offset: 0x23C81, size: 0x8, addend: 0x0, symName: __ZNSt3__112__hash_tableINS_17__hash_value_typeINS_12basic_stringIcNS_11char_traitsIcEENS_9allocatorIcEEEENS_3mapIiS7_NS_4lessIiEENS5_INS_4pairIKiS7_EEEEEEEENS_22__unordered_map_hasherIS7_SG_NS_4hashIS7_EENS_8equal_toIS7_EELb1EEENS_21__unordered_map_equalIS7_SG_SL_SJ_Lb1EEENS5_ISG_EEE15max_load_factorB8ue170006Ev, symObjAddr: 0x7B20, symBinAddr: 0x100008330, symSize: 0x20 }
  - { offsetInCU: 0x23CA7, offset: 0x23CA7, size: 0x8, addend: 0x0, symName: __ZNSt3__112__hash_tableINS_17__hash_value_typeINS_12basic_stringIcNS_11char_traitsIcEENS_9allocatorIcEEEENS_3mapIiS7_NS_4lessIiEENS5_INS_4pairIKiS7_EEEEEEEENS_22__unordered_map_hasherIS7_SG_NS_4hashIS7_EENS_8equal_toIS7_EELb1EEENS_21__unordered_map_equalIS7_SG_SL_SJ_Lb1EEENS5_ISG_EEE15__rehash_uniqueB8ue170006Em, symObjAddr: 0x7B40, symBinAddr: 0x100008350, symSize: 0x30 }
  - { offsetInCU: 0x23CDC, offset: 0x23CDC, size: 0x8, addend: 0x0, symName: __ZNSt3__117__compressed_pairINS_16__hash_node_baseIPNS_11__hash_nodeINS_17__hash_value_typeINS_12basic_stringIcNS_11char_traitsIcEENS_9allocatorIcEEEENS_3mapIiS9_NS_4lessIiEENS7_INS_4pairIKiS9_EEEEEEEEPvEEEENS7_ISK_EEE5firstB8ue170006Ev, symObjAddr: 0x7B70, symBinAddr: 0x100008380, symSize: 0x20 }
  - { offsetInCU: 0x23D02, offset: 0x23D02, size: 0x8, addend: 0x0, symName: __ZNSt3__116__hash_node_baseIPNS_11__hash_nodeINS_17__hash_value_typeINS_12basic_stringIcNS_11char_traitsIcEENS_9allocatorIcEEEENS_3mapIiS8_NS_4lessIiEENS6_INS_4pairIKiS8_EEEEEEEEPvEEE5__ptrB8ue170006Ev, symObjAddr: 0x7B90, symBinAddr: 0x1000083A0, symSize: 0x20 }
  - { offsetInCU: 0x23D28, offset: 0x23D28, size: 0x8, addend: 0x0, symName: __ZNKSt3__110unique_ptrINS_11__hash_nodeINS_17__hash_value_typeINS_12basic_stringIcNS_11char_traitsIcEENS_9allocatorIcEEEENS_3mapIiS8_NS_4lessIiEENS6_INS_4pairIKiS8_EEEEEEEEPvEENS_22__hash_node_destructorINS6_ISJ_EEEEEptB8ue170006Ev, symObjAddr: 0x7BB0, symBinAddr: 0x1000083C0, symSize: 0x20 }
  - { offsetInCU: 0x23D4E, offset: 0x23D4E, size: 0x8, addend: 0x0, symName: __ZNKSt3__110unique_ptrINS_11__hash_nodeINS_17__hash_value_typeINS_12basic_stringIcNS_11char_traitsIcEENS_9allocatorIcEEEENS_3mapIiS8_NS_4lessIiEENS6_INS_4pairIKiS8_EEEEEEEEPvEENS_22__hash_node_destructorINS6_ISJ_EEEEE3getB8ue170006Ev, symObjAddr: 0x7BD0, symBinAddr: 0x1000083E0, symSize: 0x20 }
  - { offsetInCU: 0x23D74, offset: 0x23D74, size: 0x8, addend: 0x0, symName: __ZNSt3__110unique_ptrINS_11__hash_nodeINS_17__hash_value_typeINS_12basic_stringIcNS_11char_traitsIcEENS_9allocatorIcEEEENS_3mapIiS8_NS_4lessIiEENS6_INS_4pairIKiS8_EEEEEEEEPvEENS_22__hash_node_destructorINS6_ISJ_EEEEE7releaseB8ue170006Ev, symObjAddr: 0x7BF0, symBinAddr: 0x100008400, symSize: 0x40 }
  - { offsetInCU: 0x23DA9, offset: 0x23DA9, size: 0x8, addend: 0x0, symName: __ZNSt3__110unique_ptrINS_11__hash_nodeINS_17__hash_value_typeINS_12basic_stringIcNS_11char_traitsIcEENS_9allocatorIcEEEENS_3mapIiS8_NS_4lessIiEENS6_INS_4pairIKiS8_EEEEEEEEPvEENS_22__hash_node_destructorINS6_ISJ_EEEEED1B8ue170006Ev, symObjAddr: 0x7C30, symBinAddr: 0x100008440, symSize: 0x20 }
  - { offsetInCU: 0x23DD3, offset: 0x23DD3, size: 0x8, addend: 0x0, symName: __ZNSt3__115__hash_iteratorIPNS_11__hash_nodeINS_17__hash_value_typeINS_12basic_stringIcNS_11char_traitsIcEENS_9allocatorIcEEEENS_3mapIiS8_NS_4lessIiEENS6_INS_4pairIKiS8_EEEEEEEEPvEEEC1B8ue170006EPNS_16__hash_node_baseISK_EE, symObjAddr: 0x7C50, symBinAddr: 0x100008460, symSize: 0x30 }
  - { offsetInCU: 0x23E12, offset: 0x23E12, size: 0x8, addend: 0x0, symName: __ZNSt3__14pairINS_15__hash_iteratorIPNS_11__hash_nodeINS_17__hash_value_typeINS_12basic_stringIcNS_11char_traitsIcEENS_9allocatorIcEEEENS_3mapIiS9_NS_4lessIiEENS7_INS0_IKiS9_EEEEEEEEPvEEEEbEC1B8ue170006ISL_RbLSI_0EEEOT_OT0_, symObjAddr: 0x7C80, symBinAddr: 0x100008490, symSize: 0x30 }
  - { offsetInCU: 0x23E70, offset: 0x23E70, size: 0x8, addend: 0x0, symName: __ZNSt3__117__compressed_pairImNS_22__unordered_map_hasherINS_12basic_stringIcNS_11char_traitsIcEENS_9allocatorIcEEEENS_17__hash_value_typeIS7_NS_3mapIiS7_NS_4lessIiEENS5_INS_4pairIKiS7_EEEEEEEENS_4hashIS7_EENS_8equal_toIS7_EELb1EEEE6secondB8ue170006Ev, symObjAddr: 0x7CB0, symBinAddr: 0x1000084C0, symSize: 0x20 }
  - { offsetInCU: 0x23E96, offset: 0x23E96, size: 0x8, addend: 0x0, symName: __ZNSt3__122__compressed_pair_elemINS_22__unordered_map_hasherINS_12basic_stringIcNS_11char_traitsIcEENS_9allocatorIcEEEENS_17__hash_value_typeIS7_NS_3mapIiS7_NS_4lessIiEENS5_INS_4pairIKiS7_EEEEEEEENS_4hashIS7_EENS_8equal_toIS7_EELb1EEELi1ELb1EE5__getB8ue170006Ev, symObjAddr: 0x7CD0, symBinAddr: 0x1000084E0, symSize: 0x10 }
  - { offsetInCU: 0x23EBC, offset: 0x23EBC, size: 0x8, addend: 0x0, symName: __ZNKSt3__110unique_ptrIA_PNS_16__hash_node_baseIPNS_11__hash_nodeINS_17__hash_value_typeINS_12basic_stringIcNS_11char_traitsIcEENS_9allocatorIcEEEENS_3mapIiS9_NS_4lessIiEENS7_INS_4pairIKiS9_EEEEEEEEPvEEEENS_25__bucket_list_deallocatorINS7_ISN_EEEEE11get_deleterB8ue170006Ev, symObjAddr: 0x7CE0, symBinAddr: 0x1000084F0, symSize: 0x20 }
  - { offsetInCU: 0x23EE2, offset: 0x23EE2, size: 0x8, addend: 0x0, symName: __ZNKSt3__125__bucket_list_deallocatorINS_9allocatorIPNS_16__hash_node_baseIPNS_11__hash_nodeINS_17__hash_value_typeINS_12basic_stringIcNS_11char_traitsIcEENS1_IcEEEENS_3mapIiS9_NS_4lessIiEENS1_INS_4pairIKiS9_EEEEEEEEPvEEEEEEE4sizeB8ue170006Ev, symObjAddr: 0x7D00, symBinAddr: 0x100008510, symSize: 0x20 }
  - { offsetInCU: 0x23F08, offset: 0x23F08, size: 0x8, addend: 0x0, symName: __ZNKSt3__117__compressed_pairIPPNS_16__hash_node_baseIPNS_11__hash_nodeINS_17__hash_value_typeINS_12basic_stringIcNS_11char_traitsIcEENS_9allocatorIcEEEENS_3mapIiS9_NS_4lessIiEENS7_INS_4pairIKiS9_EEEEEEEEPvEEEENS_25__bucket_list_deallocatorINS7_ISN_EEEEE6secondB8ue170006Ev, symObjAddr: 0x7D20, symBinAddr: 0x100008530, symSize: 0x20 }
  - { offsetInCU: 0x23F2E, offset: 0x23F2E, size: 0x8, addend: 0x0, symName: __ZNKSt3__122__compressed_pair_elemINS_25__bucket_list_deallocatorINS_9allocatorIPNS_16__hash_node_baseIPNS_11__hash_nodeINS_17__hash_value_typeINS_12basic_stringIcNS_11char_traitsIcEENS2_IcEEEENS_3mapIiSA_NS_4lessIiEENS2_INS_4pairIKiSA_EEEEEEEEPvEEEEEEEELi1ELb0EE5__getB8ue170006Ev, symObjAddr: 0x7D40, symBinAddr: 0x100008550, symSize: 0x10 }
  - { offsetInCU: 0x23F54, offset: 0x23F54, size: 0x8, addend: 0x0, symName: __ZNKSt3__117__compressed_pairImNS_9allocatorIPNS_16__hash_node_baseIPNS_11__hash_nodeINS_17__hash_value_typeINS_12basic_stringIcNS_11char_traitsIcEENS1_IcEEEENS_3mapIiS9_NS_4lessIiEENS1_INS_4pairIKiS9_EEEEEEEEPvEEEEEEE5firstB8ue170006Ev, symObjAddr: 0x7D50, symBinAddr: 0x100008560, symSize: 0x20 }
  - { offsetInCU: 0x23F7A, offset: 0x23F7A, size: 0x8, addend: 0x0, symName: __ZNKSt3__117__compressed_pairIPPNS_16__hash_node_baseIPNS_11__hash_nodeINS_17__hash_value_typeINS_12basic_stringIcNS_11char_traitsIcEENS_9allocatorIcEEEENS_3mapIiS9_NS_4lessIiEENS7_INS_4pairIKiS9_EEEEEEEEPvEEEENS_25__bucket_list_deallocatorINS7_ISN_EEEEE5firstB8ue170006Ev, symObjAddr: 0x7D70, symBinAddr: 0x100008580, symSize: 0x20 }
  - { offsetInCU: 0x23FA0, offset: 0x23FA0, size: 0x8, addend: 0x0, symName: __ZNKSt3__122__compressed_pair_elemIPPNS_16__hash_node_baseIPNS_11__hash_nodeINS_17__hash_value_typeINS_12basic_stringIcNS_11char_traitsIcEENS_9allocatorIcEEEENS_3mapIiS9_NS_4lessIiEENS7_INS_4pairIKiS9_EEEEEEEEPvEEEELi0ELb0EE5__getB8ue170006Ev, symObjAddr: 0x7D90, symBinAddr: 0x1000085A0, symSize: 0x10 }
  - { offsetInCU: 0x23FC6, offset: 0x23FC6, size: 0x8, addend: 0x0, symName: __ZNSt3__117__compressed_pairIfNS_21__unordered_map_equalINS_12basic_stringIcNS_11char_traitsIcEENS_9allocatorIcEEEENS_17__hash_value_typeIS7_NS_3mapIiS7_NS_4lessIiEENS5_INS_4pairIKiS7_EEEEEEEENS_8equal_toIS7_EENS_4hashIS7_EELb1EEEE6secondB8ue170006Ev, symObjAddr: 0x7DA0, symBinAddr: 0x1000085B0, symSize: 0x20 }
  - { offsetInCU: 0x23FEC, offset: 0x23FEC, size: 0x8, addend: 0x0, symName: __ZNSt3__122__compressed_pair_elemINS_21__unordered_map_equalINS_12basic_stringIcNS_11char_traitsIcEENS_9allocatorIcEEEENS_17__hash_value_typeIS7_NS_3mapIiS7_NS_4lessIiEENS5_INS_4pairIKiS7_EEEEEEEENS_8equal_toIS7_EENS_4hashIS7_EELb1EEELi1ELb1EE5__getB8ue170006Ev, symObjAddr: 0x7DC0, symBinAddr: 0x1000085D0, symSize: 0x10 }
  - { offsetInCU: 0x24012, offset: 0x24012, size: 0x8, addend: 0x0, symName: __ZNKSt3__117__hash_value_typeINS_12basic_stringIcNS_11char_traitsIcEENS_9allocatorIcEEEENS_3mapIiS6_NS_4lessIiEENS4_INS_4pairIKiS6_EEEEEEE11__get_valueB8ue170006Ev, symObjAddr: 0x7DD0, symBinAddr: 0x1000085E0, symSize: 0x20 }
  - { offsetInCU: 0x24038, offset: 0x24038, size: 0x8, addend: 0x0, symName: __ZNSt3__114pointer_traitsIPNS_16__hash_node_baseIPNS_11__hash_nodeINS_17__hash_value_typeINS_12basic_stringIcNS_11char_traitsIcEENS_9allocatorIcEEEENS_3mapIiS9_NS_4lessIiEENS7_INS_4pairIKiS9_EEEEEEEEPvEEEEE10pointer_toB8ue170006ERSM_, symObjAddr: 0x7E20, symBinAddr: 0x100008630, symSize: 0x10 }
  - { offsetInCU: 0x2405B, offset: 0x2405B, size: 0x8, addend: 0x0, symName: __ZNSt3__112__hash_tableINS_17__hash_value_typeINS_12basic_stringIcNS_11char_traitsIcEENS_9allocatorIcEEEENS_3mapIiS7_NS_4lessIiEENS5_INS_4pairIKiS7_EEEEEEEENS_22__unordered_map_hasherIS7_SG_NS_4hashIS7_EENS_8equal_toIS7_EELb1EEENS_21__unordered_map_equalIS7_SG_SL_SJ_Lb1EEENS5_ISG_EEE12__node_allocB8ue170006Ev, symObjAddr: 0x7E30, symBinAddr: 0x100008640, symSize: 0x20 }
  - { offsetInCU: 0x24081, offset: 0x24081, size: 0x8, addend: 0x0, symName: __ZNSt3__116allocator_traitsINS_9allocatorINS_11__hash_nodeINS_17__hash_value_typeINS_12basic_stringIcNS_11char_traitsIcEENS1_IcEEEENS_3mapIiS8_NS_4lessIiEENS1_INS_4pairIKiS8_EEEEEEEEPvEEEEE8allocateB8ue170006ERSK_m, symObjAddr: 0x7E50, symBinAddr: 0x100008660, symSize: 0x30 }
  - { offsetInCU: 0x240B4, offset: 0x240B4, size: 0x8, addend: 0x0, symName: __ZNSt3__122__hash_node_destructorINS_9allocatorINS_11__hash_nodeINS_17__hash_value_typeINS_12basic_stringIcNS_11char_traitsIcEENS1_IcEEEENS_3mapIiS8_NS_4lessIiEENS1_INS_4pairIKiS8_EEEEEEEEPvEEEEEC1B8ue170006ERSK_b, symObjAddr: 0x7E80, symBinAddr: 0x100008690, symSize: 0x40 }
  - { offsetInCU: 0x24102, offset: 0x24102, size: 0x8, addend: 0x0, symName: __ZNSt3__110unique_ptrINS_11__hash_nodeINS_17__hash_value_typeINS_12basic_stringIcNS_11char_traitsIcEENS_9allocatorIcEEEENS_3mapIiS8_NS_4lessIiEENS6_INS_4pairIKiS8_EEEEEEEEPvEENS_22__hash_node_destructorINS6_ISJ_EEEEEC1B8ue170006ILb1EvEEPSJ_NS_16__dependent_typeINS_27__unique_ptr_deleter_sfinaeISM_EEXT_EE20__good_rval_ref_typeE, symObjAddr: 0x7EC0, symBinAddr: 0x1000086D0, symSize: 0x30 }
  - { offsetInCU: 0x24153, offset: 0x24153, size: 0x8, addend: 0x0, symName: __ZNSt3__116allocator_traitsINS_9allocatorINS_11__hash_nodeINS_17__hash_value_typeINS_12basic_stringIcNS_11char_traitsIcEENS1_IcEEEENS_3mapIiS8_NS_4lessIiEENS1_INS_4pairIKiS8_EEEEEEEEPvEEEEE9constructB8ue170006INSC_IKS8_SG_EEJRKNS_21piecewise_construct_tENS_5tupleIJRSN_EEENSS_IJEEEEvEEvRSK_PT_DpOT0_, symObjAddr: 0x7EF0, symBinAddr: 0x100008700, symSize: 0x40 }
  - { offsetInCU: 0x241D2, offset: 0x241D2, size: 0x8, addend: 0x0, symName: __ZNSt3__122__hash_key_value_typesINS_17__hash_value_typeINS_12basic_stringIcNS_11char_traitsIcEENS_9allocatorIcEEEENS_3mapIiS7_NS_4lessIiEENS5_INS_4pairIKiS7_EEEEEEEEE9__get_ptrB8ue170006ERSG_, symObjAddr: 0x7F30, symBinAddr: 0x100008740, symSize: 0x20 }
  - { offsetInCU: 0x241F5, offset: 0x241F5, size: 0x8, addend: 0x0, symName: __ZNSt3__110unique_ptrINS_11__hash_nodeINS_17__hash_value_typeINS_12basic_stringIcNS_11char_traitsIcEENS_9allocatorIcEEEENS_3mapIiS8_NS_4lessIiEENS6_INS_4pairIKiS8_EEEEEEEEPvEENS_22__hash_node_destructorINS6_ISJ_EEEEE11get_deleterB8ue170006Ev, symObjAddr: 0x7F50, symBinAddr: 0x100008760, symSize: 0x20 }
  - { offsetInCU: 0x2421B, offset: 0x2421B, size: 0x8, addend: 0x0, symName: __ZNSt3__117__compressed_pairINS_16__hash_node_baseIPNS_11__hash_nodeINS_17__hash_value_typeINS_12basic_stringIcNS_11char_traitsIcEENS_9allocatorIcEEEENS_3mapIiS9_NS_4lessIiEENS7_INS_4pairIKiS9_EEEEEEEEPvEEEENS7_ISK_EEE6secondB8ue170006Ev, symObjAddr: 0x7F70, symBinAddr: 0x100008780, symSize: 0x20 }
  - { offsetInCU: 0x24241, offset: 0x24241, size: 0x8, addend: 0x0, symName: __ZNSt3__122__compressed_pair_elemINS_9allocatorINS_11__hash_nodeINS_17__hash_value_typeINS_12basic_stringIcNS_11char_traitsIcEENS1_IcEEEENS_3mapIiS8_NS_4lessIiEENS1_INS_4pairIKiS8_EEEEEEEEPvEEEELi1ELb1EE5__getB8ue170006Ev, symObjAddr: 0x7F90, symBinAddr: 0x1000087A0, symSize: 0x10 }
  - { offsetInCU: 0x24267, offset: 0x24267, size: 0x8, addend: 0x0, symName: __ZNSt3__19allocatorINS_11__hash_nodeINS_17__hash_value_typeINS_12basic_stringIcNS_11char_traitsIcEENS0_IcEEEENS_3mapIiS7_NS_4lessIiEENS0_INS_4pairIKiS7_EEEEEEEEPvEEE8allocateB8ue170006Em, symObjAddr: 0x7FA0, symBinAddr: 0x1000087B0, symSize: 0x50 }
  - { offsetInCU: 0x242A6, offset: 0x242A6, size: 0x8, addend: 0x0, symName: __ZNSt3__116allocator_traitsINS_9allocatorINS_11__hash_nodeINS_17__hash_value_typeINS_12basic_stringIcNS_11char_traitsIcEENS1_IcEEEENS_3mapIiS8_NS_4lessIiEENS1_INS_4pairIKiS8_EEEEEEEEPvEEEEE8max_sizeB8ue170006ISK_vEEmRKSK_, symObjAddr: 0x7FF0, symBinAddr: 0x100008800, symSize: 0x20 }
  - { offsetInCU: 0x242D4, offset: 0x242D4, size: 0x8, addend: 0x0, symName: __ZNKSt3__19allocatorINS_11__hash_nodeINS_17__hash_value_typeINS_12basic_stringIcNS_11char_traitsIcEENS0_IcEEEENS_3mapIiS7_NS_4lessIiEENS0_INS_4pairIKiS7_EEEEEEEEPvEEE8max_sizeB8ue170006Ev, symObjAddr: 0x8010, symBinAddr: 0x100008820, symSize: 0x20 }
  - { offsetInCU: 0x242FA, offset: 0x242FA, size: 0x8, addend: 0x0, symName: __ZNSt3__122__hash_node_destructorINS_9allocatorINS_11__hash_nodeINS_17__hash_value_typeINS_12basic_stringIcNS_11char_traitsIcEENS1_IcEEEENS_3mapIiS8_NS_4lessIiEENS1_INS_4pairIKiS8_EEEEEEEEPvEEEEEC2B8ue170006ERSK_b, symObjAddr: 0x8030, symBinAddr: 0x100008840, symSize: 0x30 }
  - { offsetInCU: 0x24342, offset: 0x24342, size: 0x8, addend: 0x0, symName: __ZNSt3__110unique_ptrINS_11__hash_nodeINS_17__hash_value_typeINS_12basic_stringIcNS_11char_traitsIcEENS_9allocatorIcEEEENS_3mapIiS8_NS_4lessIiEENS6_INS_4pairIKiS8_EEEEEEEEPvEENS_22__hash_node_destructorINS6_ISJ_EEEEEC2B8ue170006ILb1EvEEPSJ_NS_16__dependent_typeINS_27__unique_ptr_deleter_sfinaeISM_EEXT_EE20__good_rval_ref_typeE, symObjAddr: 0x8060, symBinAddr: 0x100008870, symSize: 0x40 }
  - { offsetInCU: 0x24393, offset: 0x24393, size: 0x8, addend: 0x0, symName: __ZNSt3__117__compressed_pairIPNS_11__hash_nodeINS_17__hash_value_typeINS_12basic_stringIcNS_11char_traitsIcEENS_9allocatorIcEEEENS_3mapIiS8_NS_4lessIiEENS6_INS_4pairIKiS8_EEEEEEEEPvEENS_22__hash_node_destructorINS6_ISJ_EEEEEC1B8ue170006IRSK_SN_EEOT_OT0_, symObjAddr: 0x80A0, symBinAddr: 0x1000088B0, symSize: 0x30 }
  - { offsetInCU: 0x243EB, offset: 0x243EB, size: 0x8, addend: 0x0, symName: __ZNSt3__117__compressed_pairIPNS_11__hash_nodeINS_17__hash_value_typeINS_12basic_stringIcNS_11char_traitsIcEENS_9allocatorIcEEEENS_3mapIiS8_NS_4lessIiEENS6_INS_4pairIKiS8_EEEEEEEEPvEENS_22__hash_node_destructorINS6_ISJ_EEEEEC2B8ue170006IRSK_SN_EEOT_OT0_, symObjAddr: 0x80D0, symBinAddr: 0x1000088E0, symSize: 0x40 }
  - { offsetInCU: 0x24443, offset: 0x24443, size: 0x8, addend: 0x0, symName: __ZNSt3__122__compressed_pair_elemIPNS_11__hash_nodeINS_17__hash_value_typeINS_12basic_stringIcNS_11char_traitsIcEENS_9allocatorIcEEEENS_3mapIiS8_NS_4lessIiEENS6_INS_4pairIKiS8_EEEEEEEEPvEELi0ELb0EEC2B8ue170006IRSK_vEEOT_, symObjAddr: 0x8110, symBinAddr: 0x100008920, symSize: 0x20 }
  - { offsetInCU: 0x24485, offset: 0x24485, size: 0x8, addend: 0x0, symName: __ZNSt3__122__compressed_pair_elemINS_22__hash_node_destructorINS_9allocatorINS_11__hash_nodeINS_17__hash_value_typeINS_12basic_stringIcNS_11char_traitsIcEENS2_IcEEEENS_3mapIiS9_NS_4lessIiEENS2_INS_4pairIKiS9_EEEEEEEEPvEEEEEELi1ELb0EEC2B8ue170006ISM_vEEOT_, symObjAddr: 0x8130, symBinAddr: 0x100008940, symSize: 0x30 }
  - { offsetInCU: 0x244C7, offset: 0x244C7, size: 0x8, addend: 0x0, symName: __ZNSt3__19allocatorINS_11__hash_nodeINS_17__hash_value_typeINS_12basic_stringIcNS_11char_traitsIcEENS0_IcEEEENS_3mapIiS7_NS_4lessIiEENS0_INS_4pairIKiS7_EEEEEEEEPvEEE9constructB8ue170006INSB_IKS7_SF_EEJRKNS_21piecewise_construct_tENS_5tupleIJRSL_EEENSQ_IJEEEEEEvPT_DpOT0_, symObjAddr: 0x8160, symBinAddr: 0x100008970, symSize: 0x40 }
  - { offsetInCU: 0x24543, offset: 0x24543, size: 0x8, addend: 0x0, symName: __ZNSt3__14pairIKNS_12basic_stringIcNS_11char_traitsIcEENS_9allocatorIcEEEENS_3mapIiS6_NS_4lessIiEENS4_INS0_IKiS6_EEEEEEEC1B8ue170006IJRS7_EJEEENS_21piecewise_construct_tENS_5tupleIJDpT_EEENSJ_IJDpT0_EEE, symObjAddr: 0x81A0, symBinAddr: 0x1000089B0, symSize: 0x30 }
  - { offsetInCU: 0x245AA, offset: 0x245AA, size: 0x8, addend: 0x0, symName: __ZNSt3__14pairIKNS_12basic_stringIcNS_11char_traitsIcEENS_9allocatorIcEEEENS_3mapIiS6_NS_4lessIiEENS4_INS0_IKiS6_EEEEEEEC1B8ue170006IJRS7_EJEJLm0EEJEEENS_21piecewise_construct_tERNS_5tupleIJDpT_EEERNSJ_IJDpT0_EEENS_15__tuple_indicesIJXspT1_EEEENSS_IJXspT2_EEEE, symObjAddr: 0x81D0, symBinAddr: 0x1000089E0, symSize: 0x30 }
  - { offsetInCU: 0x2463A, offset: 0x2463A, size: 0x8, addend: 0x0, symName: __ZNSt3__14pairIKNS_12basic_stringIcNS_11char_traitsIcEENS_9allocatorIcEEEENS_3mapIiS6_NS_4lessIiEENS4_INS0_IKiS6_EEEEEEEC2B8ue170006IJRS7_EJEJLm0EEJEEENS_21piecewise_construct_tERNS_5tupleIJDpT_EEERNSJ_IJDpT0_EEENS_15__tuple_indicesIJXspT1_EEEENSS_IJXspT2_EEEE, symObjAddr: 0x8200, symBinAddr: 0x100008A10, symSize: 0x50 }
  - { offsetInCU: 0x246CA, offset: 0x246CA, size: 0x8, addend: 0x0, symName: __ZNSt3__13mapIiNS_12basic_stringIcNS_11char_traitsIcEENS_9allocatorIcEEEENS_4lessIiEENS4_INS_4pairIKiS6_EEEEEC1B8ue170006Ev, symObjAddr: 0x8270, symBinAddr: 0x100008A80, symSize: 0x20 }
  - { offsetInCU: 0x246F4, offset: 0x246F4, size: 0x8, addend: 0x0, symName: __ZNSt3__112__tuple_leafILm0ERKNS_12basic_stringIcNS_11char_traitsIcEENS_9allocatorIcEEEELb0EE3getB8ue170006Ev, symObjAddr: 0x8290, symBinAddr: 0x100008AA0, symSize: 0x20 }
  - { offsetInCU: 0x2471A, offset: 0x2471A, size: 0x8, addend: 0x0, symName: __ZNSt3__13mapIiNS_12basic_stringIcNS_11char_traitsIcEENS_9allocatorIcEEEENS_4lessIiEENS4_INS_4pairIKiS6_EEEEEC2B8ue170006Ev, symObjAddr: 0x82B0, symBinAddr: 0x100008AC0, symSize: 0x30 }
  - { offsetInCU: 0x24744, offset: 0x24744, size: 0x8, addend: 0x0, symName: __ZNSt3__119__map_value_compareIiNS_12__value_typeIiNS_12basic_stringIcNS_11char_traitsIcEENS_9allocatorIcEEEEEENS_4lessIiEELb1EEC1B8ue170006ESA_, symObjAddr: 0x82E0, symBinAddr: 0x100008AF0, symSize: 0x20 }
  - { offsetInCU: 0x2477D, offset: 0x2477D, size: 0x8, addend: 0x0, symName: __ZNSt3__16__treeINS_12__value_typeIiNS_12basic_stringIcNS_11char_traitsIcEENS_9allocatorIcEEEEEENS_19__map_value_compareIiS8_NS_4lessIiEELb1EEENS5_IS8_EEEC1ERKSC_, symObjAddr: 0x8300, symBinAddr: 0x100008B10, symSize: 0x30 }
  - { offsetInCU: 0x247B8, offset: 0x247B8, size: 0x8, addend: 0x0, symName: __ZNSt3__119__map_value_compareIiNS_12__value_typeIiNS_12basic_stringIcNS_11char_traitsIcEENS_9allocatorIcEEEEEENS_4lessIiEELb1EEC2B8ue170006ESA_, symObjAddr: 0x8330, symBinAddr: 0x100008B40, symSize: 0x10 }
  - { offsetInCU: 0x247F1, offset: 0x247F1, size: 0x8, addend: 0x0, symName: __ZNSt3__16__treeINS_12__value_typeIiNS_12basic_stringIcNS_11char_traitsIcEENS_9allocatorIcEEEEEENS_19__map_value_compareIiS8_NS_4lessIiEELb1EEENS5_IS8_EEEC2ERKSC_, symObjAddr: 0x8340, symBinAddr: 0x100008B50, symSize: 0x80 }
  - { offsetInCU: 0x2482C, offset: 0x2482C, size: 0x8, addend: 0x0, symName: __ZNSt3__117__compressed_pairINS_15__tree_end_nodeIPNS_16__tree_node_baseIPvEEEENS_9allocatorINS_11__tree_nodeINS_12__value_typeIiNS_12basic_stringIcNS_11char_traitsIcEENS7_IcEEEEEES3_EEEEEC1B8ue170006ILb1EvEEv, symObjAddr: 0x83C0, symBinAddr: 0x100008BD0, symSize: 0x20 }
  - { offsetInCU: 0x24861, offset: 0x24861, size: 0x8, addend: 0x0, symName: __ZNSt3__117__compressed_pairImNS_19__map_value_compareIiNS_12__value_typeIiNS_12basic_stringIcNS_11char_traitsIcEENS_9allocatorIcEEEEEENS_4lessIiEELb1EEEEC1B8ue170006IiRKSC_EEOT_OT0_, symObjAddr: 0x83E0, symBinAddr: 0x100008BF0, symSize: 0x30 }
  - { offsetInCU: 0x248B9, offset: 0x248B9, size: 0x8, addend: 0x0, symName: __ZNSt3__16__treeINS_12__value_typeIiNS_12basic_stringIcNS_11char_traitsIcEENS_9allocatorIcEEEEEENS_19__map_value_compareIiS8_NS_4lessIiEELb1EEENS5_IS8_EEE10__end_nodeB8ue170006Ev, symObjAddr: 0x8410, symBinAddr: 0x100008C20, symSize: 0x30 }
  - { offsetInCU: 0x248DF, offset: 0x248DF, size: 0x8, addend: 0x0, symName: __ZNSt3__16__treeINS_12__value_typeIiNS_12basic_stringIcNS_11char_traitsIcEENS_9allocatorIcEEEEEENS_19__map_value_compareIiS8_NS_4lessIiEELb1EEENS5_IS8_EEE12__begin_nodeB8ue170006Ev, symObjAddr: 0x8440, symBinAddr: 0x100008C50, symSize: 0x10 }
  - { offsetInCU: 0x24905, offset: 0x24905, size: 0x8, addend: 0x0, symName: __ZNSt3__117__compressed_pairINS_15__tree_end_nodeIPNS_16__tree_node_baseIPvEEEENS_9allocatorINS_11__tree_nodeINS_12__value_typeIiNS_12basic_stringIcNS_11char_traitsIcEENS7_IcEEEEEES3_EEEEEC2B8ue170006ILb1EvEEv, symObjAddr: 0x8450, symBinAddr: 0x100008C60, symSize: 0x30 }
  - { offsetInCU: 0x2493A, offset: 0x2493A, size: 0x8, addend: 0x0, symName: __ZNSt3__122__compressed_pair_elemINS_15__tree_end_nodeIPNS_16__tree_node_baseIPvEEEELi0ELb0EEC2B8ue170006ENS_16__value_init_tagE, symObjAddr: 0x8480, symBinAddr: 0x100008C90, symSize: 0x20 }
  - { offsetInCU: 0x2496F, offset: 0x2496F, size: 0x8, addend: 0x0, symName: __ZNSt3__122__compressed_pair_elemINS_9allocatorINS_11__tree_nodeINS_12__value_typeIiNS_12basic_stringIcNS_11char_traitsIcEENS1_IcEEEEEEPvEEEELi1ELb1EEC2B8ue170006ENS_16__value_init_tagE, symObjAddr: 0x84A0, symBinAddr: 0x100008CB0, symSize: 0x20 }
  - { offsetInCU: 0x249A4, offset: 0x249A4, size: 0x8, addend: 0x0, symName: __ZNSt3__115__tree_end_nodeIPNS_16__tree_node_baseIPvEEEC1B8ue170006Ev, symObjAddr: 0x84C0, symBinAddr: 0x100008CD0, symSize: 0x20 }
  - { offsetInCU: 0x249CE, offset: 0x249CE, size: 0x8, addend: 0x0, symName: __ZNSt3__115__tree_end_nodeIPNS_16__tree_node_baseIPvEEEC2B8ue170006Ev, symObjAddr: 0x84E0, symBinAddr: 0x100008CF0, symSize: 0x20 }
  - { offsetInCU: 0x249F8, offset: 0x249F8, size: 0x8, addend: 0x0, symName: __ZNSt3__19allocatorINS_11__tree_nodeINS_12__value_typeIiNS_12basic_stringIcNS_11char_traitsIcEENS0_IcEEEEEEPvEEEC2B8ue170006Ev, symObjAddr: 0x8500, symBinAddr: 0x100008D10, symSize: 0x20 }
  - { offsetInCU: 0x24A22, offset: 0x24A22, size: 0x8, addend: 0x0, symName: __ZNSt3__116__non_trivial_ifILb1ENS_9allocatorINS_11__tree_nodeINS_12__value_typeIiNS_12basic_stringIcNS_11char_traitsIcEENS1_IcEEEEEEPvEEEEEC2B8ue170006Ev, symObjAddr: 0x8520, symBinAddr: 0x100008D30, symSize: 0x10 }
  - { offsetInCU: 0x24A4C, offset: 0x24A4C, size: 0x8, addend: 0x0, symName: __ZNSt3__117__compressed_pairImNS_19__map_value_compareIiNS_12__value_typeIiNS_12basic_stringIcNS_11char_traitsIcEENS_9allocatorIcEEEEEENS_4lessIiEELb1EEEEC2B8ue170006IiRKSC_EEOT_OT0_, symObjAddr: 0x8530, symBinAddr: 0x100008D40, symSize: 0x40 }
  - { offsetInCU: 0x24AA4, offset: 0x24AA4, size: 0x8, addend: 0x0, symName: __ZNSt3__122__compressed_pair_elemINS_19__map_value_compareIiNS_12__value_typeIiNS_12basic_stringIcNS_11char_traitsIcEENS_9allocatorIcEEEEEENS_4lessIiEELb1EEELi1ELb1EEC2B8ue170006IRKSC_vEEOT_, symObjAddr: 0x8570, symBinAddr: 0x100008D80, symSize: 0x10 }
  - { offsetInCU: 0x24AE6, offset: 0x24AE6, size: 0x8, addend: 0x0, symName: __ZNSt3__114pointer_traitsIPNS_15__tree_end_nodeIPNS_16__tree_node_baseIPvEEEEE10pointer_toB8ue170006ERS6_, symObjAddr: 0x8580, symBinAddr: 0x100008D90, symSize: 0x10 }
  - { offsetInCU: 0x24B09, offset: 0x24B09, size: 0x8, addend: 0x0, symName: __ZNSt3__117__compressed_pairINS_15__tree_end_nodeIPNS_16__tree_node_baseIPvEEEENS_9allocatorINS_11__tree_nodeINS_12__value_typeIiNS_12basic_stringIcNS_11char_traitsIcEENS7_IcEEEEEES3_EEEEE5firstB8ue170006Ev, symObjAddr: 0x8590, symBinAddr: 0x100008DA0, symSize: 0x20 }
  - { offsetInCU: 0x24B2F, offset: 0x24B2F, size: 0x8, addend: 0x0, symName: __ZNSt3__122__compressed_pair_elemINS_15__tree_end_nodeIPNS_16__tree_node_baseIPvEEEELi0ELb0EE5__getB8ue170006Ev, symObjAddr: 0x85B0, symBinAddr: 0x100008DC0, symSize: 0x10 }
  - { offsetInCU: 0x24B55, offset: 0x24B55, size: 0x8, addend: 0x0, symName: __ZNSt3__117__compressed_pairIPNS_11__hash_nodeINS_17__hash_value_typeINS_12basic_stringIcNS_11char_traitsIcEENS_9allocatorIcEEEENS_3mapIiS8_NS_4lessIiEENS6_INS_4pairIKiS8_EEEEEEEEPvEENS_22__hash_node_destructorINS6_ISJ_EEEEE6secondB8ue170006Ev, symObjAddr: 0x85C0, symBinAddr: 0x100008DD0, symSize: 0x20 }
  - { offsetInCU: 0x24B7B, offset: 0x24B7B, size: 0x8, addend: 0x0, symName: __ZNSt3__122__compressed_pair_elemINS_22__hash_node_destructorINS_9allocatorINS_11__hash_nodeINS_17__hash_value_typeINS_12basic_stringIcNS_11char_traitsIcEENS2_IcEEEENS_3mapIiS9_NS_4lessIiEENS2_INS_4pairIKiS9_EEEEEEEEPvEEEEEELi1ELb0EE5__getB8ue170006Ev, symObjAddr: 0x85E0, symBinAddr: 0x100008DF0, symSize: 0x10 }
  - { offsetInCU: 0x24BA1, offset: 0x24BA1, size: 0x8, addend: 0x0, symName: __ZNSt3__117__compressed_pairImNS_22__unordered_map_hasherINS_12basic_stringIcNS_11char_traitsIcEENS_9allocatorIcEEEENS_17__hash_value_typeIS7_NS_3mapIiS7_NS_4lessIiEENS5_INS_4pairIKiS7_EEEEEEEENS_4hashIS7_EENS_8equal_toIS7_EELb1EEEE5firstB8ue170006Ev, symObjAddr: 0x85F0, symBinAddr: 0x100008E00, symSize: 0x20 }
  - { offsetInCU: 0x24BC7, offset: 0x24BC7, size: 0x8, addend: 0x0, symName: __ZNSt3__117__compressed_pairIfNS_21__unordered_map_equalINS_12basic_stringIcNS_11char_traitsIcEENS_9allocatorIcEEEENS_17__hash_value_typeIS7_NS_3mapIiS7_NS_4lessIiEENS5_INS_4pairIKiS7_EEEEEEEENS_8equal_toIS7_EENS_4hashIS7_EELb1EEEE5firstB8ue170006Ev, symObjAddr: 0x8610, symBinAddr: 0x100008E20, symSize: 0x20 }
  - { offsetInCU: 0x24BED, offset: 0x24BED, size: 0x8, addend: 0x0, symName: __ZNSt3__112__hash_tableINS_17__hash_value_typeINS_12basic_stringIcNS_11char_traitsIcEENS_9allocatorIcEEEENS_3mapIiS7_NS_4lessIiEENS5_INS_4pairIKiS7_EEEEEEEENS_22__unordered_map_hasherIS7_SG_NS_4hashIS7_EENS_8equal_toIS7_EELb1EEENS_21__unordered_map_equalIS7_SG_SL_SJ_Lb1EEENS5_ISG_EEE8__rehashILb1EEEvm, symObjAddr: 0x8630, symBinAddr: 0x100008E40, symSize: 0x230 }
  - { offsetInCU: 0x24C3D, offset: 0x24C3D, size: 0x8, addend: 0x0, symName: __ZNSt3__112__hash_tableINS_17__hash_value_typeINS_12basic_stringIcNS_11char_traitsIcEENS_9allocatorIcEEEENS_3mapIiS7_NS_4lessIiEENS5_INS_4pairIKiS7_EEEEEEEENS_22__unordered_map_hasherIS7_SG_NS_4hashIS7_EENS_8equal_toIS7_EELb1EEENS_21__unordered_map_equalIS7_SG_SL_SJ_Lb1EEENS5_ISG_EEE11__do_rehashILb1EEEvm, symObjAddr: 0x8860, symBinAddr: 0x100009070, symSize: 0x250 }
  - { offsetInCU: 0x24D20, offset: 0x24D20, size: 0x8, addend: 0x0, symName: __ZNSt3__110unique_ptrIA_PNS_16__hash_node_baseIPNS_11__hash_nodeINS_17__hash_value_typeINS_12basic_stringIcNS_11char_traitsIcEENS_9allocatorIcEEEENS_3mapIiS9_NS_4lessIiEENS7_INS_4pairIKiS9_EEEEEEEEPvEEEENS_25__bucket_list_deallocatorINS7_ISN_EEEEE11get_deleterB8ue170006Ev, symObjAddr: 0x8AB0, symBinAddr: 0x1000092C0, symSize: 0x20 }
  - { offsetInCU: 0x24D46, offset: 0x24D46, size: 0x8, addend: 0x0, symName: __ZNSt3__125__bucket_list_deallocatorINS_9allocatorIPNS_16__hash_node_baseIPNS_11__hash_nodeINS_17__hash_value_typeINS_12basic_stringIcNS_11char_traitsIcEENS1_IcEEEENS_3mapIiS9_NS_4lessIiEENS1_INS_4pairIKiS9_EEEEEEEEPvEEEEEEE7__allocB8ue170006Ev, symObjAddr: 0x8AD0, symBinAddr: 0x1000092E0, symSize: 0x20 }
  - { offsetInCU: 0x24D6C, offset: 0x24D6C, size: 0x8, addend: 0x0, symName: __ZNSt3__110unique_ptrIA_PNS_16__hash_node_baseIPNS_11__hash_nodeINS_17__hash_value_typeINS_12basic_stringIcNS_11char_traitsIcEENS_9allocatorIcEEEENS_3mapIiS9_NS_4lessIiEENS7_INS_4pairIKiS9_EEEEEEEEPvEEEENS_25__bucket_list_deallocatorINS7_ISN_EEEEE5resetB8ue170006IPSN_EENS_9enable_ifIXsr28_CheckArrayPointerConversionIT_EE5valueEvE4typeESW_, symObjAddr: 0x8AF0, symBinAddr: 0x100009300, symSize: 0x70 }
  - { offsetInCU: 0x24DB9, offset: 0x24DB9, size: 0x8, addend: 0x0, symName: __ZNSt3__116allocator_traitsINS_9allocatorIPNS_16__hash_node_baseIPNS_11__hash_nodeINS_17__hash_value_typeINS_12basic_stringIcNS_11char_traitsIcEENS1_IcEEEENS_3mapIiS9_NS_4lessIiEENS1_INS_4pairIKiS9_EEEEEEEEPvEEEEEEE8allocateB8ue170006ERSO_m, symObjAddr: 0x8B60, symBinAddr: 0x100009370, symSize: 0x30 }
  - { offsetInCU: 0x24DEC, offset: 0x24DEC, size: 0x8, addend: 0x0, symName: __ZNSt3__125__bucket_list_deallocatorINS_9allocatorIPNS_16__hash_node_baseIPNS_11__hash_nodeINS_17__hash_value_typeINS_12basic_stringIcNS_11char_traitsIcEENS1_IcEEEENS_3mapIiS9_NS_4lessIiEENS1_INS_4pairIKiS9_EEEEEEEEPvEEEEEEE4sizeB8ue170006Ev, symObjAddr: 0x8B90, symBinAddr: 0x1000093A0, symSize: 0x20 }
  - { offsetInCU: 0x24E12, offset: 0x24E12, size: 0x8, addend: 0x0, symName: __ZNSt3__117__compressed_pairIPPNS_16__hash_node_baseIPNS_11__hash_nodeINS_17__hash_value_typeINS_12basic_stringIcNS_11char_traitsIcEENS_9allocatorIcEEEENS_3mapIiS9_NS_4lessIiEENS7_INS_4pairIKiS9_EEEEEEEEPvEEEENS_25__bucket_list_deallocatorINS7_ISN_EEEEE6secondB8ue170006Ev, symObjAddr: 0x8BB0, symBinAddr: 0x1000093C0, symSize: 0x20 }
  - { offsetInCU: 0x24E38, offset: 0x24E38, size: 0x8, addend: 0x0, symName: __ZNSt3__122__compressed_pair_elemINS_25__bucket_list_deallocatorINS_9allocatorIPNS_16__hash_node_baseIPNS_11__hash_nodeINS_17__hash_value_typeINS_12basic_stringIcNS_11char_traitsIcEENS2_IcEEEENS_3mapIiSA_NS_4lessIiEENS2_INS_4pairIKiSA_EEEEEEEEPvEEEEEEEELi1ELb0EE5__getB8ue170006Ev, symObjAddr: 0x8BD0, symBinAddr: 0x1000093E0, symSize: 0x10 }
  - { offsetInCU: 0x24E5E, offset: 0x24E5E, size: 0x8, addend: 0x0, symName: __ZNSt3__117__compressed_pairImNS_9allocatorIPNS_16__hash_node_baseIPNS_11__hash_nodeINS_17__hash_value_typeINS_12basic_stringIcNS_11char_traitsIcEENS1_IcEEEENS_3mapIiS9_NS_4lessIiEENS1_INS_4pairIKiS9_EEEEEEEEPvEEEEEEE6secondB8ue170006Ev, symObjAddr: 0x8BE0, symBinAddr: 0x1000093F0, symSize: 0x20 }
  - { offsetInCU: 0x24E84, offset: 0x24E84, size: 0x8, addend: 0x0, symName: __ZNSt3__122__compressed_pair_elemINS_9allocatorIPNS_16__hash_node_baseIPNS_11__hash_nodeINS_17__hash_value_typeINS_12basic_stringIcNS_11char_traitsIcEENS1_IcEEEENS_3mapIiS9_NS_4lessIiEENS1_INS_4pairIKiS9_EEEEEEEEPvEEEEEELi1ELb1EE5__getB8ue170006Ev, symObjAddr: 0x8C00, symBinAddr: 0x100009410, symSize: 0x10 }
  - { offsetInCU: 0x24EAA, offset: 0x24EAA, size: 0x8, addend: 0x0, symName: __ZNSt3__117__compressed_pairIPPNS_16__hash_node_baseIPNS_11__hash_nodeINS_17__hash_value_typeINS_12basic_stringIcNS_11char_traitsIcEENS_9allocatorIcEEEENS_3mapIiS9_NS_4lessIiEENS7_INS_4pairIKiS9_EEEEEEEEPvEEEENS_25__bucket_list_deallocatorINS7_ISN_EEEEE5firstB8ue170006Ev, symObjAddr: 0x8C10, symBinAddr: 0x100009420, symSize: 0x20 }
  - { offsetInCU: 0x24ED0, offset: 0x24ED0, size: 0x8, addend: 0x0, symName: __ZNSt3__125__bucket_list_deallocatorINS_9allocatorIPNS_16__hash_node_baseIPNS_11__hash_nodeINS_17__hash_value_typeINS_12basic_stringIcNS_11char_traitsIcEENS1_IcEEEENS_3mapIiS9_NS_4lessIiEENS1_INS_4pairIKiS9_EEEEEEEEPvEEEEEEEclB8ue170006EPSN_, symObjAddr: 0x8C30, symBinAddr: 0x100009440, symSize: 0x50 }
  - { offsetInCU: 0x24F05, offset: 0x24F05, size: 0x8, addend: 0x0, symName: __ZNSt3__122__compressed_pair_elemIPPNS_16__hash_node_baseIPNS_11__hash_nodeINS_17__hash_value_typeINS_12basic_stringIcNS_11char_traitsIcEENS_9allocatorIcEEEENS_3mapIiS9_NS_4lessIiEENS7_INS_4pairIKiS9_EEEEEEEEPvEEEELi0ELb0EE5__getB8ue170006Ev, symObjAddr: 0x8C80, symBinAddr: 0x100009490, symSize: 0x10 }
  - { offsetInCU: 0x24F2B, offset: 0x24F2B, size: 0x8, addend: 0x0, symName: __ZNSt3__116allocator_traitsINS_9allocatorIPNS_16__hash_node_baseIPNS_11__hash_nodeINS_17__hash_value_typeINS_12basic_stringIcNS_11char_traitsIcEENS1_IcEEEENS_3mapIiS9_NS_4lessIiEENS1_INS_4pairIKiS9_EEEEEEEEPvEEEEEEE10deallocateB8ue170006ERSO_PSN_m, symObjAddr: 0x8C90, symBinAddr: 0x1000094A0, symSize: 0x30 }
  - { offsetInCU: 0x24F6D, offset: 0x24F6D, size: 0x8, addend: 0x0, symName: __ZNSt3__19allocatorIPNS_16__hash_node_baseIPNS_11__hash_nodeINS_17__hash_value_typeINS_12basic_stringIcNS_11char_traitsIcEENS0_IcEEEENS_3mapIiS8_NS_4lessIiEENS0_INS_4pairIKiS8_EEEEEEEEPvEEEEE10deallocateB8ue170006EPSM_m, symObjAddr: 0x8CC0, symBinAddr: 0x1000094D0, symSize: 0x40 }
  - { offsetInCU: 0x24FAF, offset: 0x24FAF, size: 0x8, addend: 0x0, symName: __ZNSt3__19allocatorIPNS_16__hash_node_baseIPNS_11__hash_nodeINS_17__hash_value_typeINS_12basic_stringIcNS_11char_traitsIcEENS0_IcEEEENS_3mapIiS8_NS_4lessIiEENS0_INS_4pairIKiS8_EEEEEEEEPvEEEEE8allocateB8ue170006Em, symObjAddr: 0x8D00, symBinAddr: 0x100009510, symSize: 0x50 }
  - { offsetInCU: 0x24FEE, offset: 0x24FEE, size: 0x8, addend: 0x0, symName: __ZNSt3__116allocator_traitsINS_9allocatorIPNS_16__hash_node_baseIPNS_11__hash_nodeINS_17__hash_value_typeINS_12basic_stringIcNS_11char_traitsIcEENS1_IcEEEENS_3mapIiS9_NS_4lessIiEENS1_INS_4pairIKiS9_EEEEEEEEPvEEEEEEE8max_sizeB8ue170006ISO_vEEmRKSO_, symObjAddr: 0x8D50, symBinAddr: 0x100009560, symSize: 0x20 }
  - { offsetInCU: 0x2501C, offset: 0x2501C, size: 0x8, addend: 0x0, symName: __ZNKSt3__19allocatorIPNS_16__hash_node_baseIPNS_11__hash_nodeINS_17__hash_value_typeINS_12basic_stringIcNS_11char_traitsIcEENS0_IcEEEENS_3mapIiS8_NS_4lessIiEENS0_INS_4pairIKiS8_EEEEEEEEPvEEEEE8max_sizeB8ue170006Ev, symObjAddr: 0x8D70, symBinAddr: 0x100009580, symSize: 0x20 }
  - { offsetInCU: 0x25042, offset: 0x25042, size: 0x8, addend: 0x0, symName: __ZNSt3__117__compressed_pairImNS_9allocatorIPNS_16__hash_node_baseIPNS_11__hash_nodeINS_17__hash_value_typeINS_12basic_stringIcNS_11char_traitsIcEENS1_IcEEEENS_3mapIiS9_NS_4lessIiEENS1_INS_4pairIKiS9_EEEEEEEEPvEEEEEEE5firstB8ue170006Ev, symObjAddr: 0x8D90, symBinAddr: 0x1000095A0, symSize: 0x20 }
  - { offsetInCU: 0x25068, offset: 0x25068, size: 0x8, addend: 0x0, symName: __ZNSt3__122__compressed_pair_elemINS_16__hash_node_baseIPNS_11__hash_nodeINS_17__hash_value_typeINS_12basic_stringIcNS_11char_traitsIcEENS_9allocatorIcEEEENS_3mapIiS9_NS_4lessIiEENS7_INS_4pairIKiS9_EEEEEEEEPvEEEELi0ELb0EE5__getB8ue170006Ev, symObjAddr: 0x8DB0, symBinAddr: 0x1000095C0, symSize: 0x10 }
  - { offsetInCU: 0x2508E, offset: 0x2508E, size: 0x8, addend: 0x0, symName: __ZNKSt3__117__compressed_pairIPNS_11__hash_nodeINS_17__hash_value_typeINS_12basic_stringIcNS_11char_traitsIcEENS_9allocatorIcEEEENS_3mapIiS8_NS_4lessIiEENS6_INS_4pairIKiS8_EEEEEEEEPvEENS_22__hash_node_destructorINS6_ISJ_EEEEE5firstB8ue170006Ev, symObjAddr: 0x8DC0, symBinAddr: 0x1000095D0, symSize: 0x20 }
  - { offsetInCU: 0x250B4, offset: 0x250B4, size: 0x8, addend: 0x0, symName: __ZNKSt3__122__compressed_pair_elemIPNS_11__hash_nodeINS_17__hash_value_typeINS_12basic_stringIcNS_11char_traitsIcEENS_9allocatorIcEEEENS_3mapIiS8_NS_4lessIiEENS6_INS_4pairIKiS8_EEEEEEEEPvEELi0ELb0EE5__getB8ue170006Ev, symObjAddr: 0x8DE0, symBinAddr: 0x1000095F0, symSize: 0x10 }
  - { offsetInCU: 0x250DA, offset: 0x250DA, size: 0x8, addend: 0x0, symName: __ZNSt3__117__compressed_pairIPNS_11__hash_nodeINS_17__hash_value_typeINS_12basic_stringIcNS_11char_traitsIcEENS_9allocatorIcEEEENS_3mapIiS8_NS_4lessIiEENS6_INS_4pairIKiS8_EEEEEEEEPvEENS_22__hash_node_destructorINS6_ISJ_EEEEE5firstB8ue170006Ev, symObjAddr: 0x8DF0, symBinAddr: 0x100009600, symSize: 0x20 }
  - { offsetInCU: 0x25100, offset: 0x25100, size: 0x8, addend: 0x0, symName: __ZNSt3__122__compressed_pair_elemIPNS_11__hash_nodeINS_17__hash_value_typeINS_12basic_stringIcNS_11char_traitsIcEENS_9allocatorIcEEEENS_3mapIiS8_NS_4lessIiEENS6_INS_4pairIKiS8_EEEEEEEEPvEELi0ELb0EE5__getB8ue170006Ev, symObjAddr: 0x8E10, symBinAddr: 0x100009620, symSize: 0x10 }
  - { offsetInCU: 0x25126, offset: 0x25126, size: 0x8, addend: 0x0, symName: __ZNSt3__110unique_ptrINS_11__hash_nodeINS_17__hash_value_typeINS_12basic_stringIcNS_11char_traitsIcEENS_9allocatorIcEEEENS_3mapIiS8_NS_4lessIiEENS6_INS_4pairIKiS8_EEEEEEEEPvEENS_22__hash_node_destructorINS6_ISJ_EEEEED2B8ue170006Ev, symObjAddr: 0x8E20, symBinAddr: 0x100009630, symSize: 0x20 }
  - { offsetInCU: 0x25150, offset: 0x25150, size: 0x8, addend: 0x0, symName: __ZNSt3__110unique_ptrINS_11__hash_nodeINS_17__hash_value_typeINS_12basic_stringIcNS_11char_traitsIcEENS_9allocatorIcEEEENS_3mapIiS8_NS_4lessIiEENS6_INS_4pairIKiS8_EEEEEEEEPvEENS_22__hash_node_destructorINS6_ISJ_EEEEE5resetB8ue170006EPSJ_, symObjAddr: 0x8E40, symBinAddr: 0x100009650, symSize: 0x70 }
  - { offsetInCU: 0x25194, offset: 0x25194, size: 0x8, addend: 0x0, symName: __ZNSt3__122__hash_node_destructorINS_9allocatorINS_11__hash_nodeINS_17__hash_value_typeINS_12basic_stringIcNS_11char_traitsIcEENS1_IcEEEENS_3mapIiS8_NS_4lessIiEENS1_INS_4pairIKiS8_EEEEEEEEPvEEEEEclB8ue170006EPSJ_, symObjAddr: 0x8EB0, symBinAddr: 0x1000096C0, symSize: 0x90 }
  - { offsetInCU: 0x251C9, offset: 0x251C9, size: 0x8, addend: 0x0, symName: __ZNSt3__116allocator_traitsINS_9allocatorINS_11__hash_nodeINS_17__hash_value_typeINS_12basic_stringIcNS_11char_traitsIcEENS1_IcEEEENS_3mapIiS8_NS_4lessIiEENS1_INS_4pairIKiS8_EEEEEEEEPvEEEEE7destroyB8ue170006INSC_IKS8_SG_EEvvEEvRSK_PT_, symObjAddr: 0x8F40, symBinAddr: 0x100009750, symSize: 0x20 }
  - { offsetInCU: 0x25204, offset: 0x25204, size: 0x8, addend: 0x0, symName: __ZNSt3__116allocator_traitsINS_9allocatorINS_11__hash_nodeINS_17__hash_value_typeINS_12basic_stringIcNS_11char_traitsIcEENS1_IcEEEENS_3mapIiS8_NS_4lessIiEENS1_INS_4pairIKiS8_EEEEEEEEPvEEEEE10deallocateB8ue170006ERSK_PSJ_m, symObjAddr: 0x8F60, symBinAddr: 0x100009770, symSize: 0x30 }
  - { offsetInCU: 0x25246, offset: 0x25246, size: 0x8, addend: 0x0, symName: __ZNSt3__14pairIKNS_12basic_stringIcNS_11char_traitsIcEENS_9allocatorIcEEEENS_3mapIiS6_NS_4lessIiEENS4_INS0_IKiS6_EEEEEEED1Ev, symObjAddr: 0x8F90, symBinAddr: 0x1000097A0, symSize: 0x20 }
  - { offsetInCU: 0x25272, offset: 0x25272, size: 0x8, addend: 0x0, symName: __ZNSt3__14pairIKNS_12basic_stringIcNS_11char_traitsIcEENS_9allocatorIcEEEENS_3mapIiS6_NS_4lessIiEENS4_INS0_IKiS6_EEEEEEED2Ev, symObjAddr: 0x8FB0, symBinAddr: 0x1000097C0, symSize: 0x30 }
  - { offsetInCU: 0x2529E, offset: 0x2529E, size: 0x8, addend: 0x0, symName: __ZNSt3__13mapIiNS_12basic_stringIcNS_11char_traitsIcEENS_9allocatorIcEEEENS_4lessIiEENS4_INS_4pairIKiS6_EEEEED1B8ue170006Ev, symObjAddr: 0x8FE0, symBinAddr: 0x1000097F0, symSize: 0x20 }
  - { offsetInCU: 0x252C8, offset: 0x252C8, size: 0x8, addend: 0x0, symName: __ZNSt3__13mapIiNS_12basic_stringIcNS_11char_traitsIcEENS_9allocatorIcEEEENS_4lessIiEENS4_INS_4pairIKiS6_EEEEED2B8ue170006Ev, symObjAddr: 0x9000, symBinAddr: 0x100009810, symSize: 0x20 }
  - { offsetInCU: 0x252F2, offset: 0x252F2, size: 0x8, addend: 0x0, symName: __ZNSt3__16__treeINS_12__value_typeIiNS_12basic_stringIcNS_11char_traitsIcEENS_9allocatorIcEEEEEENS_19__map_value_compareIiS8_NS_4lessIiEELb1EEENS5_IS8_EEED1Ev, symObjAddr: 0x9020, symBinAddr: 0x100009830, symSize: 0x20 }
  - { offsetInCU: 0x2531E, offset: 0x2531E, size: 0x8, addend: 0x0, symName: __ZNSt3__16__treeINS_12__value_typeIiNS_12basic_stringIcNS_11char_traitsIcEENS_9allocatorIcEEEEEENS_19__map_value_compareIiS8_NS_4lessIiEELb1EEENS5_IS8_EEED2Ev, symObjAddr: 0x9040, symBinAddr: 0x100009850, symSize: 0x30 }
  - { offsetInCU: 0x2534A, offset: 0x2534A, size: 0x8, addend: 0x0, symName: __ZNSt3__16__treeINS_12__value_typeIiNS_12basic_stringIcNS_11char_traitsIcEENS_9allocatorIcEEEEEENS_19__map_value_compareIiS8_NS_4lessIiEELb1EEENS5_IS8_EEE7destroyEPNS_11__tree_nodeIS8_PvEE, symObjAddr: 0x9070, symBinAddr: 0x100009880, symSize: 0xB0 }
  - { offsetInCU: 0x25396, offset: 0x25396, size: 0x8, addend: 0x0, symName: __ZNKSt3__16__treeINS_12__value_typeIiNS_12basic_stringIcNS_11char_traitsIcEENS_9allocatorIcEEEEEENS_19__map_value_compareIiS8_NS_4lessIiEELb1EEENS5_IS8_EEE6__rootB8ue170006Ev, symObjAddr: 0x9120, symBinAddr: 0x100009930, symSize: 0x20 }
  - { offsetInCU: 0x253BC, offset: 0x253BC, size: 0x8, addend: 0x0, symName: __ZNSt3__16__treeINS_12__value_typeIiNS_12basic_stringIcNS_11char_traitsIcEENS_9allocatorIcEEEEEENS_19__map_value_compareIiS8_NS_4lessIiEELb1EEENS5_IS8_EEE12__node_allocB8ue170006Ev, symObjAddr: 0x9140, symBinAddr: 0x100009950, symSize: 0x20 }
  - { offsetInCU: 0x253E2, offset: 0x253E2, size: 0x8, addend: 0x0, symName: __ZNSt3__116allocator_traitsINS_9allocatorINS_11__tree_nodeINS_12__value_typeIiNS_12basic_stringIcNS_11char_traitsIcEENS1_IcEEEEEEPvEEEEE7destroyB8ue170006INS_4pairIKiS8_EEvvEEvRSC_PT_, symObjAddr: 0x9160, symBinAddr: 0x100009970, symSize: 0x20 }
  - { offsetInCU: 0x2541D, offset: 0x2541D, size: 0x8, addend: 0x0, symName: __ZNSt3__122__tree_key_value_typesINS_12__value_typeIiNS_12basic_stringIcNS_11char_traitsIcEENS_9allocatorIcEEEEEEE9__get_ptrB8ue170006ERS8_, symObjAddr: 0x9180, symBinAddr: 0x100009990, symSize: 0x20 }
  - { offsetInCU: 0x25441, offset: 0x25441, size: 0x8, addend: 0x0, symName: __ZNSt3__116allocator_traitsINS_9allocatorINS_11__tree_nodeINS_12__value_typeIiNS_12basic_stringIcNS_11char_traitsIcEENS1_IcEEEEEEPvEEEEE10deallocateB8ue170006ERSC_PSB_m, symObjAddr: 0x91A0, symBinAddr: 0x1000099B0, symSize: 0x30 }
  - { offsetInCU: 0x25483, offset: 0x25483, size: 0x8, addend: 0x0, symName: __ZNSt3__117__compressed_pairINS_15__tree_end_nodeIPNS_16__tree_node_baseIPvEEEENS_9allocatorINS_11__tree_nodeINS_12__value_typeIiNS_12basic_stringIcNS_11char_traitsIcEENS7_IcEEEEEES3_EEEEE6secondB8ue170006Ev, symObjAddr: 0x91D0, symBinAddr: 0x1000099E0, symSize: 0x20 }
  - { offsetInCU: 0x254A9, offset: 0x254A9, size: 0x8, addend: 0x0, symName: __ZNSt3__122__compressed_pair_elemINS_9allocatorINS_11__tree_nodeINS_12__value_typeIiNS_12basic_stringIcNS_11char_traitsIcEENS1_IcEEEEEEPvEEEELi1ELb1EE5__getB8ue170006Ev, symObjAddr: 0x91F0, symBinAddr: 0x100009A00, symSize: 0x10 }
  - { offsetInCU: 0x254CF, offset: 0x254CF, size: 0x8, addend: 0x0, symName: __ZNSt3__14pairIKiNS_12basic_stringIcNS_11char_traitsIcEENS_9allocatorIcEEEEED1Ev, symObjAddr: 0x9200, symBinAddr: 0x100009A10, symSize: 0x20 }
  - { offsetInCU: 0x254FB, offset: 0x254FB, size: 0x8, addend: 0x0, symName: __ZNSt3__14pairIKiNS_12basic_stringIcNS_11char_traitsIcEENS_9allocatorIcEEEEED2Ev, symObjAddr: 0x9220, symBinAddr: 0x100009A30, symSize: 0x20 }
  - { offsetInCU: 0x25527, offset: 0x25527, size: 0x8, addend: 0x0, symName: __ZNSt3__112__value_typeIiNS_12basic_stringIcNS_11char_traitsIcEENS_9allocatorIcEEEEE11__get_valueB8ue170006Ev, symObjAddr: 0x9240, symBinAddr: 0x100009A50, symSize: 0x20 }
  - { offsetInCU: 0x2554D, offset: 0x2554D, size: 0x8, addend: 0x0, symName: __ZNSt3__19allocatorINS_11__tree_nodeINS_12__value_typeIiNS_12basic_stringIcNS_11char_traitsIcEENS0_IcEEEEEEPvEEE10deallocateB8ue170006EPSA_m, symObjAddr: 0x9290, symBinAddr: 0x100009AA0, symSize: 0x40 }
  - { offsetInCU: 0x2558F, offset: 0x2558F, size: 0x8, addend: 0x0, symName: __ZNKSt3__16__treeINS_12__value_typeIiNS_12basic_stringIcNS_11char_traitsIcEENS_9allocatorIcEEEEEENS_19__map_value_compareIiS8_NS_4lessIiEELb1EEENS5_IS8_EEE10__end_nodeB8ue170006Ev, symObjAddr: 0x92D0, symBinAddr: 0x100009AE0, symSize: 0x30 }
  - { offsetInCU: 0x255B5, offset: 0x255B5, size: 0x8, addend: 0x0, symName: __ZNKSt3__117__compressed_pairINS_15__tree_end_nodeIPNS_16__tree_node_baseIPvEEEENS_9allocatorINS_11__tree_nodeINS_12__value_typeIiNS_12basic_stringIcNS_11char_traitsIcEENS7_IcEEEEEES3_EEEEE5firstB8ue170006Ev, symObjAddr: 0x9300, symBinAddr: 0x100009B10, symSize: 0x20 }
  - { offsetInCU: 0x255DB, offset: 0x255DB, size: 0x8, addend: 0x0, symName: __ZNKSt3__122__compressed_pair_elemINS_15__tree_end_nodeIPNS_16__tree_node_baseIPvEEEELi0ELb0EE5__getB8ue170006Ev, symObjAddr: 0x9320, symBinAddr: 0x100009B30, symSize: 0x10 }
  - { offsetInCU: 0x25601, offset: 0x25601, size: 0x8, addend: 0x0, symName: __ZNSt3__19allocatorINS_11__hash_nodeINS_17__hash_value_typeINS_12basic_stringIcNS_11char_traitsIcEENS0_IcEEEENS_3mapIiS7_NS_4lessIiEENS0_INS_4pairIKiS7_EEEEEEEEPvEEE10deallocateB8ue170006EPSI_m, symObjAddr: 0x9330, symBinAddr: 0x100009B40, symSize: 0x40 }
  - { offsetInCU: 0x25643, offset: 0x25643, size: 0x8, addend: 0x0, symName: __ZNSt3__115__hash_iteratorIPNS_11__hash_nodeINS_17__hash_value_typeINS_12basic_stringIcNS_11char_traitsIcEENS_9allocatorIcEEEENS_3mapIiS8_NS_4lessIiEENS6_INS_4pairIKiS8_EEEEEEEEPvEEEC2B8ue170006EPNS_16__hash_node_baseISK_EE, symObjAddr: 0x9370, symBinAddr: 0x100009B80, symSize: 0x20 }
  - { offsetInCU: 0x2567C, offset: 0x2567C, size: 0x8, addend: 0x0, symName: __ZNSt3__14pairINS_15__hash_iteratorIPNS_11__hash_nodeINS_17__hash_value_typeINS_12basic_stringIcNS_11char_traitsIcEENS_9allocatorIcEEEENS_3mapIiS9_NS_4lessIiEENS7_INS0_IKiS9_EEEEEEEEPvEEEEbEC2B8ue170006ISL_RbLSI_0EEEOT_OT0_, symObjAddr: 0x9390, symBinAddr: 0x100009BA0, symSize: 0x30 }
  - { offsetInCU: 0x256DA, offset: 0x256DA, size: 0x8, addend: 0x0, symName: __ZNSt3__15tupleIJRKNS_12basic_stringIcNS_11char_traitsIcEENS_9allocatorIcEEEEEEC1B8ue170006INS_4_AndELi0EEES8_, symObjAddr: 0x93C0, symBinAddr: 0x100009BD0, symSize: 0x30 }
  - { offsetInCU: 0x25722, offset: 0x25722, size: 0x8, addend: 0x0, symName: __ZNSt3__15tupleIJRKNS_12basic_stringIcNS_11char_traitsIcEENS_9allocatorIcEEEEEEC2B8ue170006INS_4_AndELi0EEES8_, symObjAddr: 0x93F0, symBinAddr: 0x100009C00, symSize: 0x30 }
  - { offsetInCU: 0x2576A, offset: 0x2576A, size: 0x8, addend: 0x0, symName: __ZNSt3__112__tuple_implINS_15__tuple_indicesIJLm0EEEEJRKNS_12basic_stringIcNS_11char_traitsIcEENS_9allocatorIcEEEEEEC1B8ue170006IJLm0EEJSA_EJEJEJSA_EEENS1_IJXspT_EEEENS_13__tuple_typesIJDpT0_EEENS1_IJXspT1_EEEENSE_IJDpT2_EEEDpOT3_, symObjAddr: 0x9420, symBinAddr: 0x100009C30, symSize: 0x30 }
  - { offsetInCU: 0x257FF, offset: 0x257FF, size: 0x8, addend: 0x0, symName: __ZNSt3__112__tuple_implINS_15__tuple_indicesIJLm0EEEEJRKNS_12basic_stringIcNS_11char_traitsIcEENS_9allocatorIcEEEEEEC2B8ue170006IJLm0EEJSA_EJEJEJSA_EEENS1_IJXspT_EEEENS_13__tuple_typesIJDpT0_EEENS1_IJXspT1_EEEENSE_IJDpT2_EEEDpOT3_, symObjAddr: 0x9450, symBinAddr: 0x100009C60, symSize: 0x30 }
  - { offsetInCU: 0x25894, offset: 0x25894, size: 0x8, addend: 0x0, symName: __ZNSt3__112__tuple_leafILm0ERKNS_12basic_stringIcNS_11char_traitsIcEENS_9allocatorIcEEEELb0EEC2B8ue170006IS8_vEEOT_, symObjAddr: 0x9480, symBinAddr: 0x100009C90, symSize: 0x20 }
  - { offsetInCU: 0x258D7, offset: 0x258D7, size: 0x8, addend: 0x0, symName: __ZNSt3__114pointer_traitsIPNS_17__hash_value_typeINS_12basic_stringIcNS_11char_traitsIcEENS_9allocatorIcEEEENS_3mapIiS7_NS_4lessIiEENS5_INS_4pairIKiS7_EEEEEEEEE10pointer_toB8ue170006ERSG_, symObjAddr: 0x94A0, symBinAddr: 0x100009CB0, symSize: 0x10 }
  - { offsetInCU: 0x258FA, offset: 0x258FA, size: 0x8, addend: 0x0, symName: __ZNSt3__16__treeINS_12__value_typeIiNS_12basic_stringIcNS_11char_traitsIcEENS_9allocatorIcEEEEEENS_19__map_value_compareIiS8_NS_4lessIiEELb1EEENS5_IS8_EEE25__emplace_unique_key_argsIiJRKNS_21piecewise_construct_tENS_5tupleIJRKiEEENSJ_IJEEEEEENS_4pairINS_15__tree_iteratorIS8_PNS_11__tree_nodeIS8_PvEElEEbEERKT_DpOT0_, symObjAddr: 0x94E0, symBinAddr: 0x100009CF0, symSize: 0x100 }
  - { offsetInCU: 0x259D9, offset: 0x259D9, size: 0x8, addend: 0x0, symName: __ZNKSt3__115__tree_iteratorINS_12__value_typeIiNS_12basic_stringIcNS_11char_traitsIcEENS_9allocatorIcEEEEEEPNS_11__tree_nodeIS8_PvEElEptB8ue170006Ev, symObjAddr: 0x9610, symBinAddr: 0x100009E20, symSize: 0x30 }
  - { offsetInCU: 0x259FF, offset: 0x259FF, size: 0x8, addend: 0x0, symName: __ZNSt3__16__treeINS_12__value_typeIiNS_12basic_stringIcNS_11char_traitsIcEENS_9allocatorIcEEEEEENS_19__map_value_compareIiS8_NS_4lessIiEELb1EEENS5_IS8_EEE12__find_equalIiEERPNS_16__tree_node_baseIPvEERPNS_15__tree_end_nodeISJ_EERKT_, symObjAddr: 0x9640, symBinAddr: 0x100009E50, symSize: 0x180 }
  - { offsetInCU: 0x25A6C, offset: 0x25A6C, size: 0x8, addend: 0x0, symName: __ZNSt3__16__treeINS_12__value_typeIiNS_12basic_stringIcNS_11char_traitsIcEENS_9allocatorIcEEEEEENS_19__map_value_compareIiS8_NS_4lessIiEELb1EEENS5_IS8_EEE16__construct_nodeIJRKNS_21piecewise_construct_tENS_5tupleIJRKiEEENSJ_IJEEEEEENS_10unique_ptrINS_11__tree_nodeIS8_PvEENS_22__tree_node_destructorINS5_ISR_EEEEEEDpOT_, symObjAddr: 0x97C0, symBinAddr: 0x100009FD0, symSize: 0x120 }
  - { offsetInCU: 0x25AF5, offset: 0x25AF5, size: 0x8, addend: 0x0, symName: __ZNSt3__16__treeINS_12__value_typeIiNS_12basic_stringIcNS_11char_traitsIcEENS_9allocatorIcEEEEEENS_19__map_value_compareIiS8_NS_4lessIiEELb1EEENS5_IS8_EEE16__insert_node_atEPNS_15__tree_end_nodeIPNS_16__tree_node_baseIPvEEEERSJ_SJ_, symObjAddr: 0x98E0, symBinAddr: 0x10000A0F0, symSize: 0xC0 }
  - { offsetInCU: 0x25B4A, offset: 0x25B4A, size: 0x8, addend: 0x0, symName: __ZNKSt3__110unique_ptrINS_11__tree_nodeINS_12__value_typeIiNS_12basic_stringIcNS_11char_traitsIcEENS_9allocatorIcEEEEEEPvEENS_22__tree_node_destructorINS6_ISB_EEEEE3getB8ue170006Ev, symObjAddr: 0x99A0, symBinAddr: 0x10000A1B0, symSize: 0x20 }
  - { offsetInCU: 0x25B70, offset: 0x25B70, size: 0x8, addend: 0x0, symName: __ZNSt3__110unique_ptrINS_11__tree_nodeINS_12__value_typeIiNS_12basic_stringIcNS_11char_traitsIcEENS_9allocatorIcEEEEEEPvEENS_22__tree_node_destructorINS6_ISB_EEEEE7releaseB8ue170006Ev, symObjAddr: 0x99C0, symBinAddr: 0x10000A1D0, symSize: 0x40 }
  - { offsetInCU: 0x25BA5, offset: 0x25BA5, size: 0x8, addend: 0x0, symName: __ZNSt3__110unique_ptrINS_11__tree_nodeINS_12__value_typeIiNS_12basic_stringIcNS_11char_traitsIcEENS_9allocatorIcEEEEEEPvEENS_22__tree_node_destructorINS6_ISB_EEEEED1B8ue170006Ev, symObjAddr: 0x9A00, symBinAddr: 0x10000A210, symSize: 0x20 }
  - { offsetInCU: 0x25BCF, offset: 0x25BCF, size: 0x8, addend: 0x0, symName: __ZNSt3__115__tree_iteratorINS_12__value_typeIiNS_12basic_stringIcNS_11char_traitsIcEENS_9allocatorIcEEEEEEPNS_11__tree_nodeIS8_PvEElEC1B8ue170006ESC_, symObjAddr: 0x9A20, symBinAddr: 0x10000A230, symSize: 0x30 }
  - { offsetInCU: 0x25C0E, offset: 0x25C0E, size: 0x8, addend: 0x0, symName: __ZNSt3__14pairINS_15__tree_iteratorINS_12__value_typeIiNS_12basic_stringIcNS_11char_traitsIcEENS_9allocatorIcEEEEEEPNS_11__tree_nodeIS9_PvEElEEbEC1B8ue170006ISE_RbLSB_0EEEOT_OT0_, symObjAddr: 0x9A50, symBinAddr: 0x10000A260, symSize: 0x30 }
  - { offsetInCU: 0x25C6C, offset: 0x25C6C, size: 0x8, addend: 0x0, symName: __ZNKSt3__16__treeINS_12__value_typeIiNS_12basic_stringIcNS_11char_traitsIcEENS_9allocatorIcEEEEEENS_19__map_value_compareIiS8_NS_4lessIiEELb1EEENS5_IS8_EEE10__root_ptrB8ue170006Ev, symObjAddr: 0x9A80, symBinAddr: 0x10000A290, symSize: 0x20 }
  - { offsetInCU: 0x25C92, offset: 0x25C92, size: 0x8, addend: 0x0, symName: __ZNSt3__16__treeINS_12__value_typeIiNS_12basic_stringIcNS_11char_traitsIcEENS_9allocatorIcEEEEEENS_19__map_value_compareIiS8_NS_4lessIiEELb1EEENS5_IS8_EEE10value_compB8ue170006Ev, symObjAddr: 0x9AA0, symBinAddr: 0x10000A2B0, symSize: 0x20 }
  - { offsetInCU: 0x25CB8, offset: 0x25CB8, size: 0x8, addend: 0x0, symName: __ZNKSt3__119__map_value_compareIiNS_12__value_typeIiNS_12basic_stringIcNS_11char_traitsIcEENS_9allocatorIcEEEEEENS_4lessIiEELb1EEclB8ue170006ERKiRKS8_, symObjAddr: 0x9AC0, symBinAddr: 0x10000A2D0, symSize: 0x50 }
  - { offsetInCU: 0x25CFC, offset: 0x25CFC, size: 0x8, addend: 0x0, symName: __ZNKSt3__119__map_value_compareIiNS_12__value_typeIiNS_12basic_stringIcNS_11char_traitsIcEENS_9allocatorIcEEEEEENS_4lessIiEELb1EEclB8ue170006ERKS8_RKi, symObjAddr: 0x9B10, symBinAddr: 0x10000A320, symSize: 0x40 }
  - { offsetInCU: 0x25D40, offset: 0x25D40, size: 0x8, addend: 0x0, symName: __ZNSt3__117__compressed_pairImNS_19__map_value_compareIiNS_12__value_typeIiNS_12basic_stringIcNS_11char_traitsIcEENS_9allocatorIcEEEEEENS_4lessIiEELb1EEEE6secondB8ue170006Ev, symObjAddr: 0x9B50, symBinAddr: 0x10000A360, symSize: 0x20 }
  - { offsetInCU: 0x25D66, offset: 0x25D66, size: 0x8, addend: 0x0, symName: __ZNSt3__122__compressed_pair_elemINS_19__map_value_compareIiNS_12__value_typeIiNS_12basic_stringIcNS_11char_traitsIcEENS_9allocatorIcEEEEEENS_4lessIiEELb1EEELi1ELb1EE5__getB8ue170006Ev, symObjAddr: 0x9B70, symBinAddr: 0x10000A380, symSize: 0x10 }
  - { offsetInCU: 0x25D8C, offset: 0x25D8C, size: 0x8, addend: 0x0, symName: __ZNKSt3__14lessIiEclB8ue170006ERKiS3_, symObjAddr: 0x9B80, symBinAddr: 0x10000A390, symSize: 0x30 }
  - { offsetInCU: 0x25DD0, offset: 0x25DD0, size: 0x8, addend: 0x0, symName: __ZNKSt3__112__value_typeIiNS_12basic_stringIcNS_11char_traitsIcEENS_9allocatorIcEEEEE11__get_valueB8ue170006Ev, symObjAddr: 0x9BB0, symBinAddr: 0x10000A3C0, symSize: 0x20 }
  - { offsetInCU: 0x25DF6, offset: 0x25DF6, size: 0x8, addend: 0x0, symName: __ZNSt3__116allocator_traitsINS_9allocatorINS_11__tree_nodeINS_12__value_typeIiNS_12basic_stringIcNS_11char_traitsIcEENS1_IcEEEEEEPvEEEEE8allocateB8ue170006ERSC_m, symObjAddr: 0x9C00, symBinAddr: 0x10000A410, symSize: 0x30 }
  - { offsetInCU: 0x25E29, offset: 0x25E29, size: 0x8, addend: 0x0, symName: __ZNSt3__122__tree_node_destructorINS_9allocatorINS_11__tree_nodeINS_12__value_typeIiNS_12basic_stringIcNS_11char_traitsIcEENS1_IcEEEEEEPvEEEEEC1B8ue170006ERSC_b, symObjAddr: 0x9C30, symBinAddr: 0x10000A440, symSize: 0x40 }
  - { offsetInCU: 0x25E77, offset: 0x25E77, size: 0x8, addend: 0x0, symName: __ZNSt3__110unique_ptrINS_11__tree_nodeINS_12__value_typeIiNS_12basic_stringIcNS_11char_traitsIcEENS_9allocatorIcEEEEEEPvEENS_22__tree_node_destructorINS6_ISB_EEEEEC1B8ue170006ILb1EvEEPSB_NS_16__dependent_typeINS_27__unique_ptr_deleter_sfinaeISE_EEXT_EE20__good_rval_ref_typeE, symObjAddr: 0x9C70, symBinAddr: 0x10000A480, symSize: 0x30 }
  - { offsetInCU: 0x25EC8, offset: 0x25EC8, size: 0x8, addend: 0x0, symName: __ZNSt3__116allocator_traitsINS_9allocatorINS_11__tree_nodeINS_12__value_typeIiNS_12basic_stringIcNS_11char_traitsIcEENS1_IcEEEEEEPvEEEEE9constructB8ue170006INS_4pairIKiS8_EEJRKNS_21piecewise_construct_tENS_5tupleIJRSG_EEENSL_IJEEEEvEEvRSC_PT_DpOT0_, symObjAddr: 0x9CA0, symBinAddr: 0x10000A4B0, symSize: 0x40 }
  - { offsetInCU: 0x25F47, offset: 0x25F47, size: 0x8, addend: 0x0, symName: __ZNKSt3__110unique_ptrINS_11__tree_nodeINS_12__value_typeIiNS_12basic_stringIcNS_11char_traitsIcEENS_9allocatorIcEEEEEEPvEENS_22__tree_node_destructorINS6_ISB_EEEEEptB8ue170006Ev, symObjAddr: 0x9CE0, symBinAddr: 0x10000A4F0, symSize: 0x20 }
  - { offsetInCU: 0x25F6D, offset: 0x25F6D, size: 0x8, addend: 0x0, symName: __ZNSt3__110unique_ptrINS_11__tree_nodeINS_12__value_typeIiNS_12basic_stringIcNS_11char_traitsIcEENS_9allocatorIcEEEEEEPvEENS_22__tree_node_destructorINS6_ISB_EEEEE11get_deleterB8ue170006Ev, symObjAddr: 0x9D00, symBinAddr: 0x10000A510, symSize: 0x20 }
  - { offsetInCU: 0x25F93, offset: 0x25F93, size: 0x8, addend: 0x0, symName: __ZNSt3__19allocatorINS_11__tree_nodeINS_12__value_typeIiNS_12basic_stringIcNS_11char_traitsIcEENS0_IcEEEEEEPvEEE8allocateB8ue170006Em, symObjAddr: 0x9D20, symBinAddr: 0x10000A530, symSize: 0x50 }
  - { offsetInCU: 0x25FD2, offset: 0x25FD2, size: 0x8, addend: 0x0, symName: __ZNSt3__116allocator_traitsINS_9allocatorINS_11__tree_nodeINS_12__value_typeIiNS_12basic_stringIcNS_11char_traitsIcEENS1_IcEEEEEEPvEEEEE8max_sizeB8ue170006ISC_vEEmRKSC_, symObjAddr: 0x9D70, symBinAddr: 0x10000A580, symSize: 0x20 }
  - { offsetInCU: 0x26000, offset: 0x26000, size: 0x8, addend: 0x0, symName: __ZNKSt3__19allocatorINS_11__tree_nodeINS_12__value_typeIiNS_12basic_stringIcNS_11char_traitsIcEENS0_IcEEEEEEPvEEE8max_sizeB8ue170006Ev, symObjAddr: 0x9D90, symBinAddr: 0x10000A5A0, symSize: 0x20 }
  - { offsetInCU: 0x26026, offset: 0x26026, size: 0x8, addend: 0x0, symName: __ZNSt3__122__tree_node_destructorINS_9allocatorINS_11__tree_nodeINS_12__value_typeIiNS_12basic_stringIcNS_11char_traitsIcEENS1_IcEEEEEEPvEEEEEC2B8ue170006ERSC_b, symObjAddr: 0x9DB0, symBinAddr: 0x10000A5C0, symSize: 0x30 }
  - { offsetInCU: 0x2606E, offset: 0x2606E, size: 0x8, addend: 0x0, symName: __ZNSt3__110unique_ptrINS_11__tree_nodeINS_12__value_typeIiNS_12basic_stringIcNS_11char_traitsIcEENS_9allocatorIcEEEEEEPvEENS_22__tree_node_destructorINS6_ISB_EEEEEC2B8ue170006ILb1EvEEPSB_NS_16__dependent_typeINS_27__unique_ptr_deleter_sfinaeISE_EEXT_EE20__good_rval_ref_typeE, symObjAddr: 0x9DE0, symBinAddr: 0x10000A5F0, symSize: 0x40 }
  - { offsetInCU: 0x260BF, offset: 0x260BF, size: 0x8, addend: 0x0, symName: __ZNSt3__117__compressed_pairIPNS_11__tree_nodeINS_12__value_typeIiNS_12basic_stringIcNS_11char_traitsIcEENS_9allocatorIcEEEEEEPvEENS_22__tree_node_destructorINS6_ISB_EEEEEC1B8ue170006IRSC_SF_EEOT_OT0_, symObjAddr: 0x9E20, symBinAddr: 0x10000A630, symSize: 0x30 }
  - { offsetInCU: 0x26117, offset: 0x26117, size: 0x8, addend: 0x0, symName: __ZNSt3__117__compressed_pairIPNS_11__tree_nodeINS_12__value_typeIiNS_12basic_stringIcNS_11char_traitsIcEENS_9allocatorIcEEEEEEPvEENS_22__tree_node_destructorINS6_ISB_EEEEEC2B8ue170006IRSC_SF_EEOT_OT0_, symObjAddr: 0x9E50, symBinAddr: 0x10000A660, symSize: 0x40 }
  - { offsetInCU: 0x2616F, offset: 0x2616F, size: 0x8, addend: 0x0, symName: __ZNSt3__122__compressed_pair_elemIPNS_11__tree_nodeINS_12__value_typeIiNS_12basic_stringIcNS_11char_traitsIcEENS_9allocatorIcEEEEEEPvEELi0ELb0EEC2B8ue170006IRSC_vEEOT_, symObjAddr: 0x9E90, symBinAddr: 0x10000A6A0, symSize: 0x20 }
  - { offsetInCU: 0x261B1, offset: 0x261B1, size: 0x8, addend: 0x0, symName: __ZNSt3__122__compressed_pair_elemINS_22__tree_node_destructorINS_9allocatorINS_11__tree_nodeINS_12__value_typeIiNS_12basic_stringIcNS_11char_traitsIcEENS2_IcEEEEEEPvEEEEEELi1ELb0EEC2B8ue170006ISE_vEEOT_, symObjAddr: 0x9EB0, symBinAddr: 0x10000A6C0, symSize: 0x30 }
  - { offsetInCU: 0x261F3, offset: 0x261F3, size: 0x8, addend: 0x0, symName: __ZNSt3__19allocatorINS_11__tree_nodeINS_12__value_typeIiNS_12basic_stringIcNS_11char_traitsIcEENS0_IcEEEEEEPvEEE9constructB8ue170006INS_4pairIKiS7_EEJRKNS_21piecewise_construct_tENS_5tupleIJRSE_EEENSJ_IJEEEEEEvPT_DpOT0_, symObjAddr: 0x9EE0, symBinAddr: 0x10000A6F0, symSize: 0x40 }
  - { offsetInCU: 0x2626F, offset: 0x2626F, size: 0x8, addend: 0x0, symName: __ZNSt3__14pairIKiNS_12basic_stringIcNS_11char_traitsIcEENS_9allocatorIcEEEEEC1B8ue170006IJRS1_EJEEENS_21piecewise_construct_tENS_5tupleIJDpT_EEENSC_IJDpT0_EEE, symObjAddr: 0x9F20, symBinAddr: 0x10000A730, symSize: 0x40 }
  - { offsetInCU: 0x262D6, offset: 0x262D6, size: 0x8, addend: 0x0, symName: __ZNSt3__14pairIKiNS_12basic_stringIcNS_11char_traitsIcEENS_9allocatorIcEEEEEC1B8ue170006IJRS1_EJEJLm0EEJEEENS_21piecewise_construct_tERNS_5tupleIJDpT_EEERNSC_IJDpT0_EEENS_15__tuple_indicesIJXspT1_EEEENSL_IJXspT2_EEEE, symObjAddr: 0x9F60, symBinAddr: 0x10000A770, symSize: 0x30 }
  - { offsetInCU: 0x26366, offset: 0x26366, size: 0x8, addend: 0x0, symName: __ZNSt3__14pairIKiNS_12basic_stringIcNS_11char_traitsIcEENS_9allocatorIcEEEEEC2B8ue170006IJRS1_EJEJLm0EEJEEENS_21piecewise_construct_tERNS_5tupleIJDpT_EEERNSC_IJDpT0_EEENS_15__tuple_indicesIJXspT1_EEEENSL_IJXspT2_EEEE, symObjAddr: 0x9F90, symBinAddr: 0x10000A7A0, symSize: 0x40 }
  - { offsetInCU: 0x263F6, offset: 0x263F6, size: 0x8, addend: 0x0, symName: __ZNSt3__112__tuple_leafILm0ERKiLb0EE3getB8ue170006Ev, symObjAddr: 0x9FF0, symBinAddr: 0x10000A800, symSize: 0x20 }
  - { offsetInCU: 0x2641C, offset: 0x2641C, size: 0x8, addend: 0x0, symName: __ZNKSt3__117__compressed_pairIPNS_11__tree_nodeINS_12__value_typeIiNS_12basic_stringIcNS_11char_traitsIcEENS_9allocatorIcEEEEEEPvEENS_22__tree_node_destructorINS6_ISB_EEEEE5firstB8ue170006Ev, symObjAddr: 0xA010, symBinAddr: 0x10000A820, symSize: 0x20 }
  - { offsetInCU: 0x26442, offset: 0x26442, size: 0x8, addend: 0x0, symName: __ZNKSt3__122__compressed_pair_elemIPNS_11__tree_nodeINS_12__value_typeIiNS_12basic_stringIcNS_11char_traitsIcEENS_9allocatorIcEEEEEEPvEELi0ELb0EE5__getB8ue170006Ev, symObjAddr: 0xA030, symBinAddr: 0x10000A840, symSize: 0x10 }
  - { offsetInCU: 0x26468, offset: 0x26468, size: 0x8, addend: 0x0, symName: __ZNSt3__117__compressed_pairIPNS_11__tree_nodeINS_12__value_typeIiNS_12basic_stringIcNS_11char_traitsIcEENS_9allocatorIcEEEEEEPvEENS_22__tree_node_destructorINS6_ISB_EEEEE6secondB8ue170006Ev, symObjAddr: 0xA040, symBinAddr: 0x10000A850, symSize: 0x20 }
  - { offsetInCU: 0x2648E, offset: 0x2648E, size: 0x8, addend: 0x0, symName: __ZNSt3__122__compressed_pair_elemINS_22__tree_node_destructorINS_9allocatorINS_11__tree_nodeINS_12__value_typeIiNS_12basic_stringIcNS_11char_traitsIcEENS2_IcEEEEEEPvEEEEEELi1ELb0EE5__getB8ue170006Ev, symObjAddr: 0xA060, symBinAddr: 0x10000A870, symSize: 0x10 }
  - { offsetInCU: 0x264B4, offset: 0x264B4, size: 0x8, addend: 0x0, symName: __ZNSt3__16__treeINS_12__value_typeIiNS_12basic_stringIcNS_11char_traitsIcEENS_9allocatorIcEEEEEENS_19__map_value_compareIiS8_NS_4lessIiEELb1EEENS5_IS8_EEE4sizeB8ue170006Ev, symObjAddr: 0xA390, symBinAddr: 0x10000ABA0, symSize: 0x20 }
  - { offsetInCU: 0x264DA, offset: 0x264DA, size: 0x8, addend: 0x0, symName: __ZNKSt3__116__tree_node_baseIPvE15__parent_unsafeB8ue170006Ev, symObjAddr: 0xA3B0, symBinAddr: 0x10000ABC0, symSize: 0x20 }
  - { offsetInCU: 0x26500, offset: 0x26500, size: 0x8, addend: 0x0, symName: __ZNSt3__116__tree_node_baseIPvE12__set_parentB8ue170006EPS2_, symObjAddr: 0xA590, symBinAddr: 0x10000ADA0, symSize: 0x20 }
  - { offsetInCU: 0x26535, offset: 0x26535, size: 0x8, addend: 0x0, symName: __ZNSt3__117__compressed_pairImNS_19__map_value_compareIiNS_12__value_typeIiNS_12basic_stringIcNS_11char_traitsIcEENS_9allocatorIcEEEEEENS_4lessIiEELb1EEEE5firstB8ue170006Ev, symObjAddr: 0xA5B0, symBinAddr: 0x10000ADC0, symSize: 0x20 }
  - { offsetInCU: 0x2655B, offset: 0x2655B, size: 0x8, addend: 0x0, symName: __ZNSt3__117__compressed_pairIPNS_11__tree_nodeINS_12__value_typeIiNS_12basic_stringIcNS_11char_traitsIcEENS_9allocatorIcEEEEEEPvEENS_22__tree_node_destructorINS6_ISB_EEEEE5firstB8ue170006Ev, symObjAddr: 0xA5D0, symBinAddr: 0x10000ADE0, symSize: 0x20 }
  - { offsetInCU: 0x26581, offset: 0x26581, size: 0x8, addend: 0x0, symName: __ZNSt3__122__compressed_pair_elemIPNS_11__tree_nodeINS_12__value_typeIiNS_12basic_stringIcNS_11char_traitsIcEENS_9allocatorIcEEEEEEPvEELi0ELb0EE5__getB8ue170006Ev, symObjAddr: 0xA5F0, symBinAddr: 0x10000AE00, symSize: 0x10 }
  - { offsetInCU: 0x265A7, offset: 0x265A7, size: 0x8, addend: 0x0, symName: __ZNSt3__110unique_ptrINS_11__tree_nodeINS_12__value_typeIiNS_12basic_stringIcNS_11char_traitsIcEENS_9allocatorIcEEEEEEPvEENS_22__tree_node_destructorINS6_ISB_EEEEED2B8ue170006Ev, symObjAddr: 0xA600, symBinAddr: 0x10000AE10, symSize: 0x20 }
  - { offsetInCU: 0x265D1, offset: 0x265D1, size: 0x8, addend: 0x0, symName: __ZNSt3__110unique_ptrINS_11__tree_nodeINS_12__value_typeIiNS_12basic_stringIcNS_11char_traitsIcEENS_9allocatorIcEEEEEEPvEENS_22__tree_node_destructorINS6_ISB_EEEEE5resetB8ue170006EPSB_, symObjAddr: 0xA620, symBinAddr: 0x10000AE30, symSize: 0x70 }
  - { offsetInCU: 0x26615, offset: 0x26615, size: 0x8, addend: 0x0, symName: __ZNSt3__122__tree_node_destructorINS_9allocatorINS_11__tree_nodeINS_12__value_typeIiNS_12basic_stringIcNS_11char_traitsIcEENS1_IcEEEEEEPvEEEEEclB8ue170006EPSB_, symObjAddr: 0xA690, symBinAddr: 0x10000AEA0, symSize: 0x80 }
  - { offsetInCU: 0x2664A, offset: 0x2664A, size: 0x8, addend: 0x0, symName: __ZNSt3__115__tree_iteratorINS_12__value_typeIiNS_12basic_stringIcNS_11char_traitsIcEENS_9allocatorIcEEEEEEPNS_11__tree_nodeIS8_PvEElEC2B8ue170006ESC_, symObjAddr: 0xA710, symBinAddr: 0x10000AF20, symSize: 0x20 }
  - { offsetInCU: 0x26683, offset: 0x26683, size: 0x8, addend: 0x0, symName: __ZNSt3__14pairINS_15__tree_iteratorINS_12__value_typeIiNS_12basic_stringIcNS_11char_traitsIcEENS_9allocatorIcEEEEEEPNS_11__tree_nodeIS9_PvEElEEbEC2B8ue170006ISE_RbLSB_0EEEOT_OT0_, symObjAddr: 0xA730, symBinAddr: 0x10000AF40, symSize: 0x30 }
  - { offsetInCU: 0x266E1, offset: 0x266E1, size: 0x8, addend: 0x0, symName: __ZNSt3__15tupleIJRKiEEC1B8ue170006INS_4_AndELi0EEES2_, symObjAddr: 0xA760, symBinAddr: 0x10000AF70, symSize: 0x30 }
  - { offsetInCU: 0x26729, offset: 0x26729, size: 0x8, addend: 0x0, symName: __ZNSt3__15tupleIJRKiEEC2B8ue170006INS_4_AndELi0EEES2_, symObjAddr: 0xA790, symBinAddr: 0x10000AFA0, symSize: 0x30 }
  - { offsetInCU: 0x26771, offset: 0x26771, size: 0x8, addend: 0x0, symName: __ZNSt3__112__tuple_implINS_15__tuple_indicesIJLm0EEEEJRKiEEC1B8ue170006IJLm0EEJS4_EJEJEJS4_EEENS1_IJXspT_EEEENS_13__tuple_typesIJDpT0_EEENS1_IJXspT1_EEEENS8_IJDpT2_EEEDpOT3_, symObjAddr: 0xA7C0, symBinAddr: 0x10000AFD0, symSize: 0x30 }
  - { offsetInCU: 0x26806, offset: 0x26806, size: 0x8, addend: 0x0, symName: __ZNSt3__112__tuple_implINS_15__tuple_indicesIJLm0EEEEJRKiEEC2B8ue170006IJLm0EEJS4_EJEJEJS4_EEENS1_IJXspT_EEEENS_13__tuple_typesIJDpT0_EEENS1_IJXspT1_EEEENS8_IJDpT2_EEEDpOT3_, symObjAddr: 0xA7F0, symBinAddr: 0x10000B000, symSize: 0x30 }
  - { offsetInCU: 0x2689B, offset: 0x2689B, size: 0x8, addend: 0x0, symName: __ZNSt3__112__tuple_leafILm0ERKiLb0EEC2B8ue170006IS2_vEEOT_, symObjAddr: 0xA820, symBinAddr: 0x10000B030, symSize: 0x20 }
  - { offsetInCU: 0x268DE, offset: 0x268DE, size: 0x8, addend: 0x0, symName: __ZNSt3__114pointer_traitsIPNS_12__value_typeIiNS_12basic_stringIcNS_11char_traitsIcEENS_9allocatorIcEEEEEEE10pointer_toB8ue170006ERS8_, symObjAddr: 0xA840, symBinAddr: 0x10000B050, symSize: 0x10 }
  - { offsetInCU: 0x26901, offset: 0x26901, size: 0x8, addend: 0x0, symName: __ZNKSt3__115__tree_iteratorINS_12__value_typeIiNS_12basic_stringIcNS_11char_traitsIcEENS_9allocatorIcEEEEEEPNS_11__tree_nodeIS8_PvEElE8__get_npB8ue170006Ev, symObjAddr: 0xA850, symBinAddr: 0x10000B060, symSize: 0x20 }
  - { offsetInCU: 0x26927, offset: 0x26927, size: 0x8, addend: 0x0, symName: __ZN10PolisCacos8InfoCacoD2Ev, symObjAddr: 0xA870, symBinAddr: 0x10000B080, symSize: 0x20 }
  - { offsetInCU: 0x26953, offset: 0x26953, size: 0x8, addend: 0x0, symName: __ZNSt3__14listINS_12basic_stringIcNS_11char_traitsIcEENS_9allocatorIcEEEENS4_IS6_EEED1Ev, symObjAddr: 0xA890, symBinAddr: 0x10000B0A0, symSize: 0x20 }
  - { offsetInCU: 0x26980, offset: 0x26980, size: 0x8, addend: 0x0, symName: __ZNSt3__14listINS_12basic_stringIcNS_11char_traitsIcEENS_9allocatorIcEEEENS4_IS6_EEED2Ev, symObjAddr: 0xA8B0, symBinAddr: 0x10000B0C0, symSize: 0x20 }
  - { offsetInCU: 0x269AD, offset: 0x269AD, size: 0x8, addend: 0x0, symName: __ZNSt3__113unordered_mapINS_12basic_stringIcNS_11char_traitsIcEENS_9allocatorIcEEEEN10PolisCacos8InfoCacoENS_4hashIS6_EENS_8equal_toIS6_EENS4_INS_4pairIKS6_S8_EEEEEixERSE_, symObjAddr: 0xA930, symBinAddr: 0x10000B140, symSize: 0x70 }
  - { offsetInCU: 0x269E4, offset: 0x269E4, size: 0x8, addend: 0x0, symName: __ZNSt3__112__hash_tableINS_17__hash_value_typeINS_12basic_stringIcNS_11char_traitsIcEENS_9allocatorIcEEEEN10PolisCacos8InfoCacoEEENS_22__unordered_map_hasherIS7_SA_NS_4hashIS7_EENS_8equal_toIS7_EELb1EEENS_21__unordered_map_equalIS7_SA_SF_SD_Lb1EEENS5_ISA_EEE25__emplace_unique_key_argsIS7_JRKNS_21piecewise_construct_tENS_5tupleIJRKS7_EEENSP_IJEEEEEENS_4pairINS_15__hash_iteratorIPNS_11__hash_nodeISA_PvEEEEbEERKT_DpOT0_, symObjAddr: 0xA9D0, symBinAddr: 0x10000B1E0, symSize: 0x5C0 }
  - { offsetInCU: 0x26AEC, offset: 0x26AEC, size: 0x8, addend: 0x0, symName: __ZNKSt3__115__hash_iteratorIPNS_11__hash_nodeINS_17__hash_value_typeINS_12basic_stringIcNS_11char_traitsIcEENS_9allocatorIcEEEEN10PolisCacos8InfoCacoEEEPvEEEptB8ue170006Ev, symObjAddr: 0xAF90, symBinAddr: 0x10000B7A0, symSize: 0x30 }
  - { offsetInCU: 0x26B12, offset: 0x26B12, size: 0x8, addend: 0x0, symName: __ZNSt3__112__hash_tableINS_17__hash_value_typeINS_12basic_stringIcNS_11char_traitsIcEENS_9allocatorIcEEEEN10PolisCacos8InfoCacoEEENS_22__unordered_map_hasherIS7_SA_NS_4hashIS7_EENS_8equal_toIS7_EELb1EEENS_21__unordered_map_equalIS7_SA_SF_SD_Lb1EEENS5_ISA_EEE21__construct_node_hashIRKNS_21piecewise_construct_tEJNS_5tupleIJRKS7_EEENSP_IJEEEEEENS_10unique_ptrINS_11__hash_nodeISA_PvEENS_22__hash_node_destructorINS5_ISX_EEEEEEmOT_DpOT0_, symObjAddr: 0xAFC0, symBinAddr: 0x10000B7D0, symSize: 0x150 }
  - { offsetInCU: 0x26BAE, offset: 0x26BAE, size: 0x8, addend: 0x0, symName: __ZNSt3__116allocator_traitsINS_9allocatorINS_11__hash_nodeINS_17__hash_value_typeINS_12basic_stringIcNS_11char_traitsIcEENS1_IcEEEEN10PolisCacos8InfoCacoEEEPvEEEEE9constructB8ue170006INS_4pairIKS8_SA_EEJRKNS_21piecewise_construct_tENS_5tupleIJRSI_EEENSN_IJEEEEvEEvRSE_PT_DpOT0_, symObjAddr: 0xB110, symBinAddr: 0x10000B920, symSize: 0x40 }
  - { offsetInCU: 0x26C2D, offset: 0x26C2D, size: 0x8, addend: 0x0, symName: __ZNSt3__19allocatorINS_11__hash_nodeINS_17__hash_value_typeINS_12basic_stringIcNS_11char_traitsIcEENS0_IcEEEEN10PolisCacos8InfoCacoEEEPvEEE9constructB8ue170006INS_4pairIKS7_S9_EEJRKNS_21piecewise_construct_tENS_5tupleIJRSG_EEENSL_IJEEEEEEvPT_DpOT0_, symObjAddr: 0xB150, symBinAddr: 0x10000B960, symSize: 0x40 }
  - { offsetInCU: 0x26CA9, offset: 0x26CA9, size: 0x8, addend: 0x0, symName: __ZNSt3__14pairIKNS_12basic_stringIcNS_11char_traitsIcEENS_9allocatorIcEEEEN10PolisCacos8InfoCacoEEC1B8ue170006IJRS7_EJEEENS_21piecewise_construct_tENS_5tupleIJDpT_EEENSE_IJDpT0_EEE, symObjAddr: 0xB190, symBinAddr: 0x10000B9A0, symSize: 0x30 }
  - { offsetInCU: 0x26D10, offset: 0x26D10, size: 0x8, addend: 0x0, symName: __ZNSt3__14pairIKNS_12basic_stringIcNS_11char_traitsIcEENS_9allocatorIcEEEEN10PolisCacos8InfoCacoEEC1B8ue170006IJRS7_EJEJLm0EEJEEENS_21piecewise_construct_tERNS_5tupleIJDpT_EEERNSE_IJDpT0_EEENS_15__tuple_indicesIJXspT1_EEEENSN_IJXspT2_EEEE, symObjAddr: 0xB1C0, symBinAddr: 0x10000B9D0, symSize: 0x30 }
  - { offsetInCU: 0x26DA0, offset: 0x26DA0, size: 0x8, addend: 0x0, symName: __ZNSt3__14pairIKNS_12basic_stringIcNS_11char_traitsIcEENS_9allocatorIcEEEEN10PolisCacos8InfoCacoEEC2B8ue170006IJRS7_EJEJLm0EEJEEENS_21piecewise_construct_tERNS_5tupleIJDpT_EEERNSE_IJDpT0_EEENS_15__tuple_indicesIJXspT1_EEEENSN_IJXspT2_EEEE, symObjAddr: 0xB1F0, symBinAddr: 0x10000BA00, symSize: 0x60 }
  - { offsetInCU: 0x26E30, offset: 0x26E30, size: 0x8, addend: 0x0, symName: __ZNSt3__114pointer_traitsIPNS_17__hash_value_typeINS_12basic_stringIcNS_11char_traitsIcEENS_9allocatorIcEEEEN10PolisCacos8InfoCacoEEEE10pointer_toB8ue170006ERSA_, symObjAddr: 0xB250, symBinAddr: 0x10000BA60, symSize: 0x10 }
  - { offsetInCU: 0x26E53, offset: 0x26E53, size: 0x8, addend: 0x0, symName: __ZNSt3__14listINS_12basic_stringIcNS_11char_traitsIcEENS_9allocatorIcEEEENS4_IS6_EEE5frontB8ue170006Ev, symObjAddr: 0xB260, symBinAddr: 0x10000BA70, symSize: 0x30 }
  - { offsetInCU: 0x26E79, offset: 0x26E79, size: 0x8, addend: 0x0, symName: __ZNKSt3__14listINS_12basic_stringIcNS_11char_traitsIcEENS_9allocatorIcEEEENS4_IS6_EEE4sizeB8ue170006Ev, symObjAddr: 0xB290, symBinAddr: 0x10000BAA0, symSize: 0x20 }
  - { offsetInCU: 0x26E9F, offset: 0x26E9F, size: 0x8, addend: 0x0, symName: __ZNSt3__13mapIiNS_12basic_stringIcNS_11char_traitsIcEENS_9allocatorIcEEEENS_4lessIiEENS4_INS_4pairIKiS6_EEEEE5eraseB8ue170006ERSA_, symObjAddr: 0xB2B0, symBinAddr: 0x10000BAC0, symSize: 0x30 }
  - { offsetInCU: 0x26ED4, offset: 0x26ED4, size: 0x8, addend: 0x0, symName: __ZNSt3__14listINS_12basic_stringIcNS_11char_traitsIcEENS_9allocatorIcEEEENS4_IS6_EEE9pop_frontEv, symObjAddr: 0xB2E0, symBinAddr: 0x10000BAF0, symSize: 0x90 }
  - { offsetInCU: 0x26F29, offset: 0x26F29, size: 0x8, addend: 0x0, symName: __ZNSt3__16__treeINS_12__value_typeIiNS_12basic_stringIcNS_11char_traitsIcEENS_9allocatorIcEEEEEENS_19__map_value_compareIiS8_NS_4lessIiEELb1EEENS5_IS8_EEE14__erase_uniqueIiEEmRKT_, symObjAddr: 0xB370, symBinAddr: 0x10000BB80, symSize: 0xA0 }
  - { offsetInCU: 0x26F78, offset: 0x26F78, size: 0x8, addend: 0x0, symName: __ZNSt3__16__treeINS_12__value_typeIiNS_12basic_stringIcNS_11char_traitsIcEENS_9allocatorIcEEEEEENS_19__map_value_compareIiS8_NS_4lessIiEELb1EEENS5_IS8_EEE4findIiEENS_15__tree_iteratorIS8_PNS_11__tree_nodeIS8_PvEElEERKT_, symObjAddr: 0xB410, symBinAddr: 0x10000BC20, symSize: 0xE0 }
  - { offsetInCU: 0x26FC7, offset: 0x26FC7, size: 0x8, addend: 0x0, symName: __ZNSt3__16__treeINS_12__value_typeIiNS_12basic_stringIcNS_11char_traitsIcEENS_9allocatorIcEEEEEENS_19__map_value_compareIiS8_NS_4lessIiEELb1EEENS5_IS8_EEE3endB8ue170006Ev, symObjAddr: 0xB520, symBinAddr: 0x10000BD30, symSize: 0x30 }
  - { offsetInCU: 0x26FED, offset: 0x26FED, size: 0x8, addend: 0x0, symName: __ZNSt3__16__treeINS_12__value_typeIiNS_12basic_stringIcNS_11char_traitsIcEENS_9allocatorIcEEEEEENS_19__map_value_compareIiS8_NS_4lessIiEELb1EEENS5_IS8_EEE5eraseENS_21__tree_const_iteratorIS8_PNS_11__tree_nodeIS8_PvEElEE, symObjAddr: 0xB550, symBinAddr: 0x10000BD60, symSize: 0x90 }
  - { offsetInCU: 0x27051, offset: 0x27051, size: 0x8, addend: 0x0, symName: __ZNSt3__121__tree_const_iteratorINS_12__value_typeIiNS_12basic_stringIcNS_11char_traitsIcEENS_9allocatorIcEEEEEEPNS_11__tree_nodeIS8_PvEElEC1B8ue170006ENS_15__tree_iteratorIS8_SC_lEE, symObjAddr: 0xB5E0, symBinAddr: 0x10000BDF0, symSize: 0x30 }
  - { offsetInCU: 0x2708A, offset: 0x2708A, size: 0x8, addend: 0x0, symName: __ZNSt3__16__treeINS_12__value_typeIiNS_12basic_stringIcNS_11char_traitsIcEENS_9allocatorIcEEEEEENS_19__map_value_compareIiS8_NS_4lessIiEELb1EEENS5_IS8_EEE13__lower_boundIiEENS_15__tree_iteratorIS8_PNS_11__tree_nodeIS8_PvEElEERKT_SK_PNS_15__tree_end_nodeIPNS_16__tree_node_baseISI_EEEE, symObjAddr: 0xB610, symBinAddr: 0x10000BE20, symSize: 0x90 }
  - { offsetInCU: 0x270E8, offset: 0x270E8, size: 0x8, addend: 0x0, symName: __ZNKSt3__115__tree_iteratorINS_12__value_typeIiNS_12basic_stringIcNS_11char_traitsIcEENS_9allocatorIcEEEEEEPNS_11__tree_nodeIS8_PvEElEdeB8ue170006Ev, symObjAddr: 0xB6D0, symBinAddr: 0x10000BEE0, symSize: 0x20 }
  - { offsetInCU: 0x2710E, offset: 0x2710E, size: 0x8, addend: 0x0, symName: __ZNSt3__115__tree_iteratorINS_12__value_typeIiNS_12basic_stringIcNS_11char_traitsIcEENS_9allocatorIcEEEEEEPNS_11__tree_nodeIS8_PvEElEC1B8ue170006EPNS_15__tree_end_nodeIPNS_16__tree_node_baseISA_EEEE, symObjAddr: 0xB6F0, symBinAddr: 0x10000BF00, symSize: 0x30 }
  - { offsetInCU: 0x27147, offset: 0x27147, size: 0x8, addend: 0x0, symName: __ZNSt3__115__tree_iteratorINS_12__value_typeIiNS_12basic_stringIcNS_11char_traitsIcEENS_9allocatorIcEEEEEEPNS_11__tree_nodeIS8_PvEElEC2B8ue170006EPNS_15__tree_end_nodeIPNS_16__tree_node_baseISA_EEEE, symObjAddr: 0xB720, symBinAddr: 0x10000BF30, symSize: 0x20 }
  - { offsetInCU: 0x27180, offset: 0x27180, size: 0x8, addend: 0x0, symName: __ZNKSt3__121__tree_const_iteratorINS_12__value_typeIiNS_12basic_stringIcNS_11char_traitsIcEENS_9allocatorIcEEEEEEPNS_11__tree_nodeIS8_PvEElE8__get_npB8ue170006Ev, symObjAddr: 0xB740, symBinAddr: 0x10000BF50, symSize: 0x20 }
  - { offsetInCU: 0x271A6, offset: 0x271A6, size: 0x8, addend: 0x0, symName: __ZNSt3__16__treeINS_12__value_typeIiNS_12basic_stringIcNS_11char_traitsIcEENS_9allocatorIcEEEEEENS_19__map_value_compareIiS8_NS_4lessIiEELb1EEENS5_IS8_EEE21__remove_node_pointerEPNS_11__tree_nodeIS8_PvEE, symObjAddr: 0xB760, symBinAddr: 0x10000BF70, symSize: 0xA0 }
  - { offsetInCU: 0x271EC, offset: 0x271EC, size: 0x8, addend: 0x0, symName: __ZNKSt3__121__tree_const_iteratorINS_12__value_typeIiNS_12basic_stringIcNS_11char_traitsIcEENS_9allocatorIcEEEEEEPNS_11__tree_nodeIS8_PvEElEdeB8ue170006Ev, symObjAddr: 0xB800, symBinAddr: 0x10000C010, symSize: 0x20 }
  - { offsetInCU: 0x27212, offset: 0x27212, size: 0x8, addend: 0x0, symName: __ZNSt3__115__tree_iteratorINS_12__value_typeIiNS_12basic_stringIcNS_11char_traitsIcEENS_9allocatorIcEEEEEEPNS_11__tree_nodeIS8_PvEElEppB8ue170006Ev, symObjAddr: 0xB820, symBinAddr: 0x10000C030, symSize: 0x30 }
  - { offsetInCU: 0x27238, offset: 0x27238, size: 0x8, addend: 0x0, symName: __ZNSt3__121__tree_const_iteratorINS_12__value_typeIiNS_12basic_stringIcNS_11char_traitsIcEENS_9allocatorIcEEEEEEPNS_11__tree_nodeIS8_PvEElEC2B8ue170006ENS_15__tree_iteratorIS8_SC_lEE, symObjAddr: 0xBF60, symBinAddr: 0x10000C770, symSize: 0x20 }
  - { offsetInCU: 0x27271, offset: 0x27271, size: 0x8, addend: 0x0, symName: __ZNSt3__113unordered_mapINS_12basic_stringIcNS_11char_traitsIcEENS_9allocatorIcEEEEN10PolisCacos8InfoCacoENS_4hashIS6_EENS_8equal_toIS6_EENS4_INS_4pairIKS6_S8_EEEEE5eraseB8ue170006ERSE_, symObjAddr: 0xBF80, symBinAddr: 0x10000C790, symSize: 0x30 }
  - { offsetInCU: 0x272A6, offset: 0x272A6, size: 0x8, addend: 0x0, symName: __ZNSt3__14listINS_12basic_stringIcNS_11char_traitsIcEENS_9allocatorIcEEEENS4_IS6_EEE5beginB8ue170006Ev, symObjAddr: 0xBFB0, symBinAddr: 0x10000C7C0, symSize: 0x30 }
  - { offsetInCU: 0x272CC, offset: 0x272CC, size: 0x8, addend: 0x0, symName: __ZNKSt3__115__list_iteratorINS_12basic_stringIcNS_11char_traitsIcEENS_9allocatorIcEEEEPvEdeB8ue170006Ev, symObjAddr: 0xBFE0, symBinAddr: 0x10000C7F0, symSize: 0x30 }
  - { offsetInCU: 0x272F2, offset: 0x272F2, size: 0x8, addend: 0x0, symName: __ZNSt3__115__list_iteratorINS_12basic_stringIcNS_11char_traitsIcEENS_9allocatorIcEEEEPvEppB8ue170006Ev, symObjAddr: 0xC010, symBinAddr: 0x10000C820, symSize: 0x20 }
  - { offsetInCU: 0x27318, offset: 0x27318, size: 0x8, addend: 0x0, symName: __ZNSt3__14listINS_12basic_stringIcNS_11char_traitsIcEENS_9allocatorIcEEEENS4_IS6_EEE5eraseENS_21__list_const_iteratorIS6_PvEE, symObjAddr: 0xC030, symBinAddr: 0x10000C840, symSize: 0xA0 }
  - { offsetInCU: 0x2738B, offset: 0x2738B, size: 0x8, addend: 0x0, symName: __ZNSt3__112__hash_tableINS_17__hash_value_typeINS_12basic_stringIcNS_11char_traitsIcEENS_9allocatorIcEEEEN10PolisCacos8InfoCacoEEENS_22__unordered_map_hasherIS7_SA_NS_4hashIS7_EENS_8equal_toIS7_EELb1EEENS_21__unordered_map_equalIS7_SA_SF_SD_Lb1EEENS5_ISA_EEE14__erase_uniqueIS7_EEmRKT_, symObjAddr: 0xC0D0, symBinAddr: 0x10000C8E0, symSize: 0x90 }
  - { offsetInCU: 0x273DA, offset: 0x273DA, size: 0x8, addend: 0x0, symName: __ZNSt3__112__hash_tableINS_17__hash_value_typeINS_12basic_stringIcNS_11char_traitsIcEENS_9allocatorIcEEEEN10PolisCacos8InfoCacoEEENS_22__unordered_map_hasherIS7_SA_NS_4hashIS7_EENS_8equal_toIS7_EELb1EEENS_21__unordered_map_equalIS7_SA_SF_SD_Lb1EEENS5_ISA_EEE5eraseENS_21__hash_const_iteratorIPNS_11__hash_nodeISA_PvEEEE, symObjAddr: 0xC160, symBinAddr: 0x10000C970, symSize: 0x70 }
  - { offsetInCU: 0x2742F, offset: 0x2742F, size: 0x8, addend: 0x0, symName: __ZNSt3__121__hash_const_iteratorIPNS_11__hash_nodeINS_17__hash_value_typeINS_12basic_stringIcNS_11char_traitsIcEENS_9allocatorIcEEEEN10PolisCacos8InfoCacoEEEPvEEEC1B8ue170006ERKNS_15__hash_iteratorISE_EE, symObjAddr: 0xC1D0, symBinAddr: 0x10000C9E0, symSize: 0x30 }
  - { offsetInCU: 0x27468, offset: 0x27468, size: 0x8, addend: 0x0, symName: __ZNSt3__115__hash_iteratorIPNS_11__hash_nodeINS_17__hash_value_typeINS_12basic_stringIcNS_11char_traitsIcEENS_9allocatorIcEEEEN10PolisCacos8InfoCacoEEEPvEEEppB8ue170006Ev, symObjAddr: 0xC200, symBinAddr: 0x10000CA10, symSize: 0x20 }
  - { offsetInCU: 0x2748E, offset: 0x2748E, size: 0x8, addend: 0x0, symName: __ZNSt3__112__hash_tableINS_17__hash_value_typeINS_12basic_stringIcNS_11char_traitsIcEENS_9allocatorIcEEEEN10PolisCacos8InfoCacoEEENS_22__unordered_map_hasherIS7_SA_NS_4hashIS7_EENS_8equal_toIS7_EELb1EEENS_21__unordered_map_equalIS7_SA_SF_SD_Lb1EEENS5_ISA_EEE6removeENS_21__hash_const_iteratorIPNS_11__hash_nodeISA_PvEEEE, symObjAddr: 0xC220, symBinAddr: 0x10000CA30, symSize: 0x1F0 }
  - { offsetInCU: 0x2751E, offset: 0x2751E, size: 0x8, addend: 0x0, symName: __ZNSt3__121__hash_const_iteratorIPNS_11__hash_nodeINS_17__hash_value_typeINS_12basic_stringIcNS_11char_traitsIcEENS_9allocatorIcEEEEN10PolisCacos8InfoCacoEEEPvEEEC2B8ue170006ERKNS_15__hash_iteratorISE_EE, symObjAddr: 0xC410, symBinAddr: 0x10000CC20, symSize: 0x20 }
  - { offsetInCU: 0x27557, offset: 0x27557, size: 0x8, addend: 0x0, symName: __ZNSt3__110__list_impINS_12basic_stringIcNS_11char_traitsIcEENS_9allocatorIcEEEENS4_IS6_EEE5beginB8ue170006Ev, symObjAddr: 0xC430, symBinAddr: 0x10000CC40, symSize: 0x30 }
  - { offsetInCU: 0x2757D, offset: 0x2757D, size: 0x8, addend: 0x0, symName: __ZNKSt3__14listINS_12basic_stringIcNS_11char_traitsIcEENS_9allocatorIcEEEENS4_IS6_EEE5frontB8ue170006Ev, symObjAddr: 0xC460, symBinAddr: 0x10000CC70, symSize: 0x30 }
  - { offsetInCU: 0x275A3, offset: 0x275A3, size: 0x8, addend: 0x0, symName: __ZNKSt3__13mapIiNS_12basic_stringIcNS_11char_traitsIcEENS_9allocatorIcEEEENS_4lessIiEENS4_INS_4pairIKiS6_EEEEE5emptyB8ue170006Ev, symObjAddr: 0xC490, symBinAddr: 0x10000CCA0, symSize: 0x30 }
  - { offsetInCU: 0x275C9, offset: 0x275C9, size: 0x8, addend: 0x0, symName: __ZNSt3__13mapIiNS_12basic_stringIcNS_11char_traitsIcEENS_9allocatorIcEEEENS_4lessIiEENS4_INS_4pairIKiS6_EEEEE5beginB8ue170006Ev, symObjAddr: 0xC4C0, symBinAddr: 0x10000CCD0, symSize: 0x30 }
  - { offsetInCU: 0x275EF, offset: 0x275EF, size: 0x8, addend: 0x0, symName: __ZNKSt3__114__map_iteratorINS_15__tree_iteratorINS_12__value_typeIiNS_12basic_stringIcNS_11char_traitsIcEENS_9allocatorIcEEEEEEPNS_11__tree_nodeIS9_PvEElEEEptB8ue170006Ev, symObjAddr: 0xC4F0, symBinAddr: 0x10000CD00, symSize: 0x30 }
  - { offsetInCU: 0x27615, offset: 0x27615, size: 0x8, addend: 0x0, symName: __ZNSt3__115__list_iteratorINS_12basic_stringIcNS_11char_traitsIcEENS_9allocatorIcEEEEPvEmmB8ue170006Ev, symObjAddr: 0xC520, symBinAddr: 0x10000CD30, symSize: 0x20 }
  - { offsetInCU: 0x2763B, offset: 0x2763B, size: 0x8, addend: 0x0, symName: __ZNKSt3__16__treeINS_12__value_typeIiNS_12basic_stringIcNS_11char_traitsIcEENS_9allocatorIcEEEEEENS_19__map_value_compareIiS8_NS_4lessIiEELb1EEENS5_IS8_EEE4sizeB8ue170006Ev, symObjAddr: 0xC540, symBinAddr: 0x10000CD50, symSize: 0x20 }
  - { offsetInCU: 0x27661, offset: 0x27661, size: 0x8, addend: 0x0, symName: __ZNKSt3__117__compressed_pairImNS_19__map_value_compareIiNS_12__value_typeIiNS_12basic_stringIcNS_11char_traitsIcEENS_9allocatorIcEEEEEENS_4lessIiEELb1EEEE5firstB8ue170006Ev, symObjAddr: 0xC560, symBinAddr: 0x10000CD70, symSize: 0x20 }
  - { offsetInCU: 0x27687, offset: 0x27687, size: 0x8, addend: 0x0, symName: __ZNSt3__16__treeINS_12__value_typeIiNS_12basic_stringIcNS_11char_traitsIcEENS_9allocatorIcEEEEEENS_19__map_value_compareIiS8_NS_4lessIiEELb1EEENS5_IS8_EEE5beginB8ue170006Ev, symObjAddr: 0xC580, symBinAddr: 0x10000CD90, symSize: 0x30 }
  - { offsetInCU: 0x276AD, offset: 0x276AD, size: 0x8, addend: 0x0, symName: __ZNSt3__114__map_iteratorINS_15__tree_iteratorINS_12__value_typeIiNS_12basic_stringIcNS_11char_traitsIcEENS_9allocatorIcEEEEEEPNS_11__tree_nodeIS9_PvEElEEEC1B8ue170006ESE_, symObjAddr: 0xC5B0, symBinAddr: 0x10000CDC0, symSize: 0x30 }
  - { offsetInCU: 0x276E6, offset: 0x276E6, size: 0x8, addend: 0x0, symName: __ZNSt3__114__map_iteratorINS_15__tree_iteratorINS_12__value_typeIiNS_12basic_stringIcNS_11char_traitsIcEENS_9allocatorIcEEEEEEPNS_11__tree_nodeIS9_PvEElEEEC2B8ue170006ESE_, symObjAddr: 0xC5E0, symBinAddr: 0x10000CDF0, symSize: 0x20 }
  - { offsetInCU: 0x2771F, offset: 0x2771F, size: 0x8, addend: 0x0, symName: __ZNSt3__114pointer_traitsIPNS_4pairIKiNS_12basic_stringIcNS_11char_traitsIcEENS_9allocatorIcEEEEEEE10pointer_toB8ue170006ERS9_, symObjAddr: 0xC600, symBinAddr: 0x10000CE10, symSize: 0x10 }
  - { offsetInCU: 0x27742, offset: 0x27742, size: 0x8, addend: 0x0, symName: __ZN10PolisCacosD2Ev, symObjAddr: 0xC610, symBinAddr: 0x10000CE20, symSize: 0x40 }
  - { offsetInCU: 0x2776E, offset: 0x2776E, size: 0x8, addend: 0x0, symName: __ZNSt3__113unordered_mapINS_12basic_stringIcNS_11char_traitsIcEENS_9allocatorIcEEEENS_3mapIiS6_NS_4lessIiEENS4_INS_4pairIKiS6_EEEEEENS_4hashIS6_EENS_8equal_toIS6_EENS4_INSA_IKS6_SE_EEEEED1B8ue170006Ev, symObjAddr: 0xC650, symBinAddr: 0x10000CE60, symSize: 0x20 }
  - { offsetInCU: 0x27798, offset: 0x27798, size: 0x8, addend: 0x0, symName: __ZNSt3__113unordered_mapINS_12basic_stringIcNS_11char_traitsIcEENS_9allocatorIcEEEEN10PolisCacos8InfoCacoENS_4hashIS6_EENS_8equal_toIS6_EENS4_INS_4pairIKS6_S8_EEEEED1B8ue170006Ev, symObjAddr: 0xC670, symBinAddr: 0x10000CE80, symSize: 0x20 }
  - { offsetInCU: 0x277C2, offset: 0x277C2, size: 0x8, addend: 0x0, symName: __ZNSt3__113unordered_mapINS_12basic_stringIcNS_11char_traitsIcEENS_9allocatorIcEEEENS_3mapIiS6_NS_4lessIiEENS4_INS_4pairIKiS6_EEEEEENS_4hashIS6_EENS_8equal_toIS6_EENS4_INSA_IKS6_SE_EEEEED2B8ue170006Ev, symObjAddr: 0xC690, symBinAddr: 0x10000CEA0, symSize: 0x20 }
  - { offsetInCU: 0x277EC, offset: 0x277EC, size: 0x8, addend: 0x0, symName: __ZNSt3__112__hash_tableINS_17__hash_value_typeINS_12basic_stringIcNS_11char_traitsIcEENS_9allocatorIcEEEENS_3mapIiS7_NS_4lessIiEENS5_INS_4pairIKiS7_EEEEEEEENS_22__unordered_map_hasherIS7_SG_NS_4hashIS7_EENS_8equal_toIS7_EELb1EEENS_21__unordered_map_equalIS7_SG_SL_SJ_Lb1EEENS5_ISG_EEED1Ev, symObjAddr: 0xC6B0, symBinAddr: 0x10000CEC0, symSize: 0x20 }
  - { offsetInCU: 0x27818, offset: 0x27818, size: 0x8, addend: 0x0, symName: __ZNSt3__112__hash_tableINS_17__hash_value_typeINS_12basic_stringIcNS_11char_traitsIcEENS_9allocatorIcEEEENS_3mapIiS7_NS_4lessIiEENS5_INS_4pairIKiS7_EEEEEEEENS_22__unordered_map_hasherIS7_SG_NS_4hashIS7_EENS_8equal_toIS7_EELb1EEENS_21__unordered_map_equalIS7_SG_SL_SJ_Lb1EEENS5_ISG_EEED2Ev, symObjAddr: 0xC6D0, symBinAddr: 0x10000CEE0, symSize: 0x40 }
  - { offsetInCU: 0x27844, offset: 0x27844, size: 0x8, addend: 0x0, symName: __ZNSt3__112__hash_tableINS_17__hash_value_typeINS_12basic_stringIcNS_11char_traitsIcEENS_9allocatorIcEEEENS_3mapIiS7_NS_4lessIiEENS5_INS_4pairIKiS7_EEEEEEEENS_22__unordered_map_hasherIS7_SG_NS_4hashIS7_EENS_8equal_toIS7_EELb1EEENS_21__unordered_map_equalIS7_SG_SL_SJ_Lb1EEENS5_ISG_EEE17__deallocate_nodeEPNS_16__hash_node_baseIPNS_11__hash_nodeISG_PvEEEE, symObjAddr: 0xC710, symBinAddr: 0x10000CF20, symSize: 0xA0 }
  - { offsetInCU: 0x278AE, offset: 0x278AE, size: 0x8, addend: 0x0, symName: __ZNSt3__110unique_ptrIA_PNS_16__hash_node_baseIPNS_11__hash_nodeINS_17__hash_value_typeINS_12basic_stringIcNS_11char_traitsIcEENS_9allocatorIcEEEENS_3mapIiS9_NS_4lessIiEENS7_INS_4pairIKiS9_EEEEEEEEPvEEEENS_25__bucket_list_deallocatorINS7_ISN_EEEEED1B8ue170006Ev, symObjAddr: 0xC7B0, symBinAddr: 0x10000CFC0, symSize: 0x20 }
  - { offsetInCU: 0x278D8, offset: 0x278D8, size: 0x8, addend: 0x0, symName: __ZNSt3__110unique_ptrIA_PNS_16__hash_node_baseIPNS_11__hash_nodeINS_17__hash_value_typeINS_12basic_stringIcNS_11char_traitsIcEENS_9allocatorIcEEEENS_3mapIiS9_NS_4lessIiEENS7_INS_4pairIKiS9_EEEEEEEEPvEEEENS_25__bucket_list_deallocatorINS7_ISN_EEEEED2B8ue170006Ev, symObjAddr: 0xC7D0, symBinAddr: 0x10000CFE0, symSize: 0x20 }
  - { offsetInCU: 0x27902, offset: 0x27902, size: 0x8, addend: 0x0, symName: __ZNSt3__110unique_ptrIA_PNS_16__hash_node_baseIPNS_11__hash_nodeINS_17__hash_value_typeINS_12basic_stringIcNS_11char_traitsIcEENS_9allocatorIcEEEENS_3mapIiS9_NS_4lessIiEENS7_INS_4pairIKiS9_EEEEEEEEPvEEEENS_25__bucket_list_deallocatorINS7_ISN_EEEEE5resetB8ue170006EDn, symObjAddr: 0xC7F0, symBinAddr: 0x10000D000, symSize: 0x60 }
  - { offsetInCU: 0x27943, offset: 0x27943, size: 0x8, addend: 0x0, symName: __ZNSt3__113unordered_mapINS_12basic_stringIcNS_11char_traitsIcEENS_9allocatorIcEEEEN10PolisCacos8InfoCacoENS_4hashIS6_EENS_8equal_toIS6_EENS4_INS_4pairIKS6_S8_EEEEED2B8ue170006Ev, symObjAddr: 0xC850, symBinAddr: 0x10000D060, symSize: 0x20 }
  - { offsetInCU: 0x2796D, offset: 0x2796D, size: 0x8, addend: 0x0, symName: __ZNSt3__112__hash_tableINS_17__hash_value_typeINS_12basic_stringIcNS_11char_traitsIcEENS_9allocatorIcEEEEN10PolisCacos8InfoCacoEEENS_22__unordered_map_hasherIS7_SA_NS_4hashIS7_EENS_8equal_toIS7_EELb1EEENS_21__unordered_map_equalIS7_SA_SF_SD_Lb1EEENS5_ISA_EEED1Ev, symObjAddr: 0xC870, symBinAddr: 0x10000D080, symSize: 0x20 }
  - { offsetInCU: 0x27999, offset: 0x27999, size: 0x8, addend: 0x0, symName: __ZNSt3__112__hash_tableINS_17__hash_value_typeINS_12basic_stringIcNS_11char_traitsIcEENS_9allocatorIcEEEEN10PolisCacos8InfoCacoEEENS_22__unordered_map_hasherIS7_SA_NS_4hashIS7_EENS_8equal_toIS7_EELb1EEENS_21__unordered_map_equalIS7_SA_SF_SD_Lb1EEENS5_ISA_EEED2Ev, symObjAddr: 0xC890, symBinAddr: 0x10000D0A0, symSize: 0x40 }
  - { offsetInCU: 0x279C5, offset: 0x279C5, size: 0x8, addend: 0x0, symName: __ZNSt3__112__hash_tableINS_17__hash_value_typeINS_12basic_stringIcNS_11char_traitsIcEENS_9allocatorIcEEEEN10PolisCacos8InfoCacoEEENS_22__unordered_map_hasherIS7_SA_NS_4hashIS7_EENS_8equal_toIS7_EELb1EEENS_21__unordered_map_equalIS7_SA_SF_SD_Lb1EEENS5_ISA_EEE17__deallocate_nodeEPNS_16__hash_node_baseIPNS_11__hash_nodeISA_PvEEEE, symObjAddr: 0xC8D0, symBinAddr: 0x10000D0E0, symSize: 0xA0 }
  - { offsetInCU: 0x27A2F, offset: 0x27A2F, size: 0x8, addend: 0x0, symName: __ZNSt3__110unique_ptrIA_PNS_16__hash_node_baseIPNS_11__hash_nodeINS_17__hash_value_typeINS_12basic_stringIcNS_11char_traitsIcEENS_9allocatorIcEEEEN10PolisCacos8InfoCacoEEEPvEEEENS_25__bucket_list_deallocatorINS7_ISH_EEEEED1B8ue170006Ev, symObjAddr: 0xC970, symBinAddr: 0x10000D180, symSize: 0x20 }
  - { offsetInCU: 0x27A59, offset: 0x27A59, size: 0x8, addend: 0x0, symName: __ZNSt3__110unique_ptrIA_PNS_16__hash_node_baseIPNS_11__hash_nodeINS_17__hash_value_typeINS_12basic_stringIcNS_11char_traitsIcEENS_9allocatorIcEEEEN10PolisCacos8InfoCacoEEEPvEEEENS_25__bucket_list_deallocatorINS7_ISH_EEEEED2B8ue170006Ev, symObjAddr: 0xC990, symBinAddr: 0x10000D1A0, symSize: 0x20 }
  - { offsetInCU: 0x27A83, offset: 0x27A83, size: 0x8, addend: 0x0, symName: __ZNSt3__110unique_ptrIA_PNS_16__hash_node_baseIPNS_11__hash_nodeINS_17__hash_value_typeINS_12basic_stringIcNS_11char_traitsIcEENS_9allocatorIcEEEEN10PolisCacos8InfoCacoEEEPvEEEENS_25__bucket_list_deallocatorINS7_ISH_EEEEE5resetB8ue170006EDn, symObjAddr: 0xC9B0, symBinAddr: 0x10000D1C0, symSize: 0x60 }
  - { offsetInCU: 0x27AC4, offset: 0x27AC4, size: 0x8, addend: 0x0, symName: __ZNSt3__114basic_ifstreamIcNS_11char_traitsIcEEED2Ev, symObjAddr: 0xCA10, symBinAddr: 0x10000D220, symSize: 0x60 }
  - { offsetInCU: 0x27AFE, offset: 0x27AFE, size: 0x8, addend: 0x0, symName: __ZTv0_n24_NSt3__114basic_ifstreamIcNS_11char_traitsIcEEED1Ev, symObjAddr: 0xCA70, symBinAddr: 0x10000D280, symSize: 0x20 }
  - { offsetInCU: 0x27B15, offset: 0x27B15, size: 0x8, addend: 0x0, symName: __ZNSt3__112basic_stringIcNS_11char_traitsIcEENS_9allocatorIcEEEC2B8ue170006Ev, symObjAddr: 0xCA90, symBinAddr: 0x10000D2A0, symSize: 0x50 }
  - { offsetInCU: 0x27B3F, offset: 0x27B3F, size: 0x8, addend: 0x0, symName: __ZNSt3__117__compressed_pairINS_12basic_stringIcNS_11char_traitsIcEENS_9allocatorIcEEE5__repES5_EC1B8ue170006INS_18__default_init_tagESA_EEOT_OT0_, symObjAddr: 0xCAE0, symBinAddr: 0x10000D2F0, symSize: 0x30 }
  - { offsetInCU: 0x27B97, offset: 0x27B97, size: 0x8, addend: 0x0, symName: __ZNSt3__112basic_stringIcNS_11char_traitsIcEENS_9allocatorIcEEE14__default_initB8ue170006Ev, symObjAddr: 0xCB10, symBinAddr: 0x10000D320, symSize: 0x50 }
  - { offsetInCU: 0x27BBD, offset: 0x27BBD, size: 0x8, addend: 0x0, symName: __ZNSt3__117__compressed_pairINS_12basic_stringIcNS_11char_traitsIcEENS_9allocatorIcEEE5__repES5_EC2B8ue170006INS_18__default_init_tagESA_EEOT_OT0_, symObjAddr: 0xCB60, symBinAddr: 0x10000D370, symSize: 0x30 }
  - { offsetInCU: 0x27C15, offset: 0x27C15, size: 0x8, addend: 0x0, symName: __ZNSt3__122__compressed_pair_elemINS_12basic_stringIcNS_11char_traitsIcEENS_9allocatorIcEEE5__repELi0ELb0EEC2B8ue170006ENS_18__default_init_tagE, symObjAddr: 0xCB90, symBinAddr: 0x10000D3A0, symSize: 0x10 }
  - { offsetInCU: 0x27C4A, offset: 0x27C4A, size: 0x8, addend: 0x0, symName: __ZNSt3__122__compressed_pair_elemINS_9allocatorIcEELi1ELb1EEC2B8ue170006ENS_18__default_init_tagE, symObjAddr: 0xCBA0, symBinAddr: 0x10000D3B0, symSize: 0x20 }
  - { offsetInCU: 0x27C7F, offset: 0x27C7F, size: 0x8, addend: 0x0, symName: __ZNSt3__19allocatorIcEC2B8ue170006Ev, symObjAddr: 0xCBC0, symBinAddr: 0x10000D3D0, symSize: 0x20 }
  - { offsetInCU: 0x27CA9, offset: 0x27CA9, size: 0x8, addend: 0x0, symName: __ZNSt3__116__non_trivial_ifILb1ENS_9allocatorIcEEEC2B8ue170006Ev, symObjAddr: 0xCBE0, symBinAddr: 0x10000D3F0, symSize: 0x10 }
  - { offsetInCU: 0x27CD3, offset: 0x27CD3, size: 0x8, addend: 0x0, symName: __ZNSt3__117__compressed_pairINS_12basic_stringIcNS_11char_traitsIcEENS_9allocatorIcEEE5__repES5_E5firstB8ue170006Ev, symObjAddr: 0xCBF0, symBinAddr: 0x10000D400, symSize: 0x20 }
  - { offsetInCU: 0x27CF9, offset: 0x27CF9, size: 0x8, addend: 0x0, symName: __ZNSt3__122__compressed_pair_elemINS_12basic_stringIcNS_11char_traitsIcEENS_9allocatorIcEEE5__repELi0ELb0EE5__getB8ue170006Ev, symObjAddr: 0xCC10, symBinAddr: 0x10000D420, symSize: 0x10 }
  - { offsetInCU: 0x27D40, offset: 0x27D40, size: 0x8, addend: 0x0, symName: __ZNKSt3__113basic_istreamIcNS_11char_traitsIcEEE6sentrycvbB8ue170006Ev, symObjAddr: 0xCC20, symBinAddr: 0x10000D430, symSize: 0x20 }
  - { offsetInCU: 0x27D66, offset: 0x27D66, size: 0x8, addend: 0x0, symName: __ZNSt3__112basic_stringIcNS_11char_traitsIcEENS_9allocatorIcEEE5clearB8ue170006Ev, symObjAddr: 0xCC40, symBinAddr: 0x10000D450, symSize: 0x80 }
  - { offsetInCU: 0x27D8E, offset: 0x27D8E, size: 0x8, addend: 0x0, symName: __ZNKSt3__18ios_base5widthB8ue170006Ev, symObjAddr: 0xCCC0, symBinAddr: 0x10000D4D0, symSize: 0x20 }
  - { offsetInCU: 0x27DB6, offset: 0x27DB6, size: 0x8, addend: 0x0, symName: __ZNKSt3__112basic_stringIcNS_11char_traitsIcEENS_9allocatorIcEEE8max_sizeB8ue170006Ev, symObjAddr: 0xCCE0, symBinAddr: 0x10000D4F0, symSize: 0xA0 }
  - { offsetInCU: 0x27E08, offset: 0x27E08, size: 0x8, addend: 0x0, symName: __ZNSt3__114numeric_limitsIlE3maxB8ue170006Ev, symObjAddr: 0xCD80, symBinAddr: 0x10000D590, symSize: 0x10 }
  - { offsetInCU: 0x27E1C, offset: 0x27E1C, size: 0x8, addend: 0x0, symName: __ZNKSt3__19basic_iosIcNS_11char_traitsIcEEE5rdbufB8ue170006Ev, symObjAddr: 0xCDC0, symBinAddr: 0x10000D5D0, symSize: 0x20 }
  - { offsetInCU: 0x27E44, offset: 0x27E44, size: 0x8, addend: 0x0, symName: __ZNSt3__115basic_streambufIcNS_11char_traitsIcEEE5sgetcB8ue170006Ev, symObjAddr: 0xCDE0, symBinAddr: 0x10000D5F0, symSize: 0x50 }
  - { offsetInCU: 0x27E6A, offset: 0x27E6A, size: 0x8, addend: 0x0, symName: __ZNSt3__111char_traitsIcE11eq_int_typeB8ue170006Eii, symObjAddr: 0xCE30, symBinAddr: 0x10000D640, symSize: 0x20 }
  - { offsetInCU: 0x27E9D, offset: 0x27E9D, size: 0x8, addend: 0x0, symName: __ZNSt3__111char_traitsIcE3eofB8ue170006Ev, symObjAddr: 0xCE50, symBinAddr: 0x10000D660, symSize: 0x10 }
  - { offsetInCU: 0x27EB1, offset: 0x27EB1, size: 0x8, addend: 0x0, symName: __ZNSt3__111char_traitsIcE12to_char_typeB8ue170006Ei, symObjAddr: 0xCE60, symBinAddr: 0x10000D670, symSize: 0x10 }
  - { offsetInCU: 0x27F01, offset: 0x27F01, size: 0x8, addend: 0x0, symName: __ZNKSt3__15ctypeIcE2isB8ue170006Ejc, symObjAddr: 0xCE70, symBinAddr: 0x10000D680, symSize: 0x70 }
  - { offsetInCU: 0x27F45, offset: 0x27F45, size: 0x8, addend: 0x0, symName: __ZNSt3__115basic_streambufIcNS_11char_traitsIcEEE6sbumpcB8ue170006Ev, symObjAddr: 0xCEE0, symBinAddr: 0x10000D6F0, symSize: 0x60 }
  - { offsetInCU: 0x27F6B, offset: 0x27F6B, size: 0x8, addend: 0x0, symName: __ZNSt3__18ios_base5widthB8ue170006El, symObjAddr: 0xCF40, symBinAddr: 0x10000D750, symSize: 0x30 }
  - { offsetInCU: 0x27FB1, offset: 0x27FB1, size: 0x8, addend: 0x0, symName: __ZNSt3__18ios_base18__setstate_nothrowB8ue170006Ej, symObjAddr: 0xCF70, symBinAddr: 0x10000D780, symSize: 0x50 }
  - { offsetInCU: 0x27FE6, offset: 0x27FE6, size: 0x8, addend: 0x0, symName: __ZNKSt3__19basic_iosIcNS_11char_traitsIcEEE10exceptionsB8ue170006Ev, symObjAddr: 0xCFC0, symBinAddr: 0x10000D7D0, symSize: 0x20 }
  - { offsetInCU: 0x2800C, offset: 0x2800C, size: 0x8, addend: 0x0, symName: __ZNSt3__19basic_iosIcNS_11char_traitsIcEEE8setstateB8ue170006Ej, symObjAddr: 0xCFE0, symBinAddr: 0x10000D7F0, symSize: 0x30 }
  - { offsetInCU: 0x28041, offset: 0x28041, size: 0x8, addend: 0x0, symName: __ZNSt3__111char_traitsIcE6assignB8ue170006ERcRKc, symObjAddr: 0xD010, symBinAddr: 0x10000D820, symSize: 0x20 }
  - { offsetInCU: 0x28072, offset: 0x28072, size: 0x8, addend: 0x0, symName: __ZNSt3__112basic_stringIcNS_11char_traitsIcEENS_9allocatorIcEEE18__get_long_pointerB8ue170006Ev, symObjAddr: 0xD030, symBinAddr: 0x10000D840, symSize: 0x20 }
  - { offsetInCU: 0x28098, offset: 0x28098, size: 0x8, addend: 0x0, symName: __ZNSt3__112basic_stringIcNS_11char_traitsIcEENS_9allocatorIcEEE15__set_long_sizeB8ue170006Em, symObjAddr: 0xD050, symBinAddr: 0x10000D860, symSize: 0x30 }
  - { offsetInCU: 0x280CD, offset: 0x280CD, size: 0x8, addend: 0x0, symName: __ZNSt3__112basic_stringIcNS_11char_traitsIcEENS_9allocatorIcEEE19__get_short_pointerB8ue170006Ev, symObjAddr: 0xD080, symBinAddr: 0x10000D890, symSize: 0x30 }
  - { offsetInCU: 0x280F3, offset: 0x280F3, size: 0x8, addend: 0x0, symName: __ZNSt3__112basic_stringIcNS_11char_traitsIcEENS_9allocatorIcEEE16__set_short_sizeB8ue170006Em, symObjAddr: 0xD0B0, symBinAddr: 0x10000D8C0, symSize: 0x50 }
  - { offsetInCU: 0x28128, offset: 0x28128, size: 0x8, addend: 0x0, symName: __ZNSt3__114pointer_traitsIPcE10pointer_toB8ue170006ERc, symObjAddr: 0xD100, symBinAddr: 0x10000D910, symSize: 0x10 }
  - { offsetInCU: 0x28156, offset: 0x28156, size: 0x8, addend: 0x0, symName: __ZNSt3__116allocator_traitsINS_9allocatorIcEEE8max_sizeB8ue170006IS2_vEEmRKS2_, symObjAddr: 0xD110, symBinAddr: 0x10000D920, symSize: 0x20 }
  - { offsetInCU: 0x28184, offset: 0x28184, size: 0x8, addend: 0x0, symName: __ZNKSt3__112basic_stringIcNS_11char_traitsIcEENS_9allocatorIcEEE7__allocB8ue170006Ev, symObjAddr: 0xD130, symBinAddr: 0x10000D940, symSize: 0x20 }
  - { offsetInCU: 0x281AA, offset: 0x281AA, size: 0x8, addend: 0x0, symName: __ZNSt3__114numeric_limitsImE3maxB8ue170006Ev, symObjAddr: 0xD150, symBinAddr: 0x10000D960, symSize: 0x10 }
  - { offsetInCU: 0x281BE, offset: 0x281BE, size: 0x8, addend: 0x0, symName: __ZNKSt3__19allocatorIcE8max_sizeB8ue170006Ev, symObjAddr: 0xD160, symBinAddr: 0x10000D970, symSize: 0x20 }
  - { offsetInCU: 0x281E4, offset: 0x281E4, size: 0x8, addend: 0x0, symName: __ZNKSt3__117__compressed_pairINS_12basic_stringIcNS_11char_traitsIcEENS_9allocatorIcEEE5__repES5_E6secondB8ue170006Ev, symObjAddr: 0xD180, symBinAddr: 0x10000D990, symSize: 0x20 }
  - { offsetInCU: 0x2820A, offset: 0x2820A, size: 0x8, addend: 0x0, symName: __ZNKSt3__122__compressed_pair_elemINS_9allocatorIcEELi1ELb1EE5__getB8ue170006Ev, symObjAddr: 0xD1A0, symBinAddr: 0x10000D9B0, symSize: 0x10 }
  - { offsetInCU: 0x28230, offset: 0x28230, size: 0x8, addend: 0x0, symName: __ZNSt3__123__libcpp_numeric_limitsImLb1EE3maxB8ue170006Ev, symObjAddr: 0xD1B0, symBinAddr: 0x10000D9C0, symSize: 0x10 }
  - { offsetInCU: 0x28244, offset: 0x28244, size: 0x8, addend: 0x0, symName: __ZNSt3__123__libcpp_numeric_limitsIlLb1EE3maxB8ue170006Ev, symObjAddr: 0xD1C0, symBinAddr: 0x10000D9D0, symSize: 0x10 }
  - { offsetInCU: 0x28258, offset: 0x28258, size: 0x8, addend: 0x0, symName: __ZNKSt3__18ios_base5rdbufB8ue170006Ev, symObjAddr: 0xD1D0, symBinAddr: 0x10000D9E0, symSize: 0x20 }
  - { offsetInCU: 0x2827E, offset: 0x2827E, size: 0x8, addend: 0x0, symName: __ZNSt3__111char_traitsIcE11to_int_typeB8ue170006Ec, symObjAddr: 0xD1F0, symBinAddr: 0x10000DA00, symSize: 0x10 }
  - { offsetInCU: 0x282A1, offset: 0x282A1, size: 0x8, addend: 0x0, symName: __Z7isasciii, symObjAddr: 0xD200, symBinAddr: 0x10000DA10, symSize: 0x20 }
  - { offsetInCU: 0x282CE, offset: 0x282CE, size: 0x8, addend: 0x0, symName: __ZNKSt3__18ios_base10exceptionsB8ue170006Ev, symObjAddr: 0xD220, symBinAddr: 0x10000DA30, symSize: 0x20 }
  - { offsetInCU: 0x282F6, offset: 0x282F6, size: 0x8, addend: 0x0, symName: __ZNSt3__18ios_base8setstateB8ue170006Ej, symObjAddr: 0xD240, symBinAddr: 0x10000DA50, symSize: 0x30 }
  - { offsetInCU: 0x2832D, offset: 0x2832D, size: 0x8, addend: 0x0, symName: __ZNKSt3__18ios_base3eofB8ue170006Ev, symObjAddr: 0xD270, symBinAddr: 0x10000DA80, symSize: 0x20 }
  - { offsetInCU: 0x28355, offset: 0x28355, size: 0x8, addend: 0x0, symName: __ZNSt3__111char_traitsIcE6lengthB8ue170006EPKc, symObjAddr: 0xD290, symBinAddr: 0x10000DAA0, symSize: 0x30 }
  - { offsetInCU: 0x28399, offset: 0x28399, size: 0x8, addend: 0x0, symName: __ZNKSt3__113basic_ostreamIcNS_11char_traitsIcEEE6sentrycvbB8ue170006Ev, symObjAddr: 0xD4D0, symBinAddr: 0x10000DCE0, symSize: 0x20 }
  - { offsetInCU: 0x283BF, offset: 0x283BF, size: 0x8, addend: 0x0, symName: __ZNSt3__119ostreambuf_iteratorIcNS_11char_traitsIcEEEC1B8ue170006ERNS_13basic_ostreamIcS2_EE, symObjAddr: 0xD710, symBinAddr: 0x10000DF20, symSize: 0x30 }
  - { offsetInCU: 0x283F7, offset: 0x283F7, size: 0x8, addend: 0x0, symName: __ZNKSt3__18ios_base5flagsB8ue170006Ev, symObjAddr: 0xD740, symBinAddr: 0x10000DF50, symSize: 0x20 }
  - { offsetInCU: 0x2841F, offset: 0x2841F, size: 0x8, addend: 0x0, symName: __ZNKSt3__19basic_iosIcNS_11char_traitsIcEEE4fillB8ue170006Ev, symObjAddr: 0xD760, symBinAddr: 0x10000DF70, symSize: 0x70 }
  - { offsetInCU: 0x28447, offset: 0x28447, size: 0x8, addend: 0x0, symName: __ZNKSt3__119ostreambuf_iteratorIcNS_11char_traitsIcEEE6failedB8ue170006Ev, symObjAddr: 0xD7D0, symBinAddr: 0x10000DFE0, symSize: 0x20 }
  - { offsetInCU: 0x2846D, offset: 0x2846D, size: 0x8, addend: 0x0, symName: __ZNSt3__115basic_streambufIcNS_11char_traitsIcEEE5sputnB8ue170006EPKcl, symObjAddr: 0xD7F0, symBinAddr: 0x10000E000, symSize: 0x30 }
  - { offsetInCU: 0x284AF, offset: 0x284AF, size: 0x8, addend: 0x0, symName: __ZNSt3__112basic_stringIcNS_11char_traitsIcEENS_9allocatorIcEEEC1B8ue170006Emc, symObjAddr: 0xD820, symBinAddr: 0x10000E030, symSize: 0x30 }
  - { offsetInCU: 0x284F7, offset: 0x284F7, size: 0x8, addend: 0x0, symName: __ZNSt3__112basic_stringIcNS_11char_traitsIcEENS_9allocatorIcEEE4dataB8ue170006Ev, symObjAddr: 0xD850, symBinAddr: 0x10000E060, symSize: 0x30 }
  - { offsetInCU: 0x2851D, offset: 0x2851D, size: 0x8, addend: 0x0, symName: __ZNSt3__112basic_stringIcNS_11char_traitsIcEENS_9allocatorIcEEEC2B8ue170006Emc, symObjAddr: 0xD880, symBinAddr: 0x10000E090, symSize: 0x50 }
  - { offsetInCU: 0x28565, offset: 0x28565, size: 0x8, addend: 0x0, symName: __ZNSt3__112basic_stringIcNS_11char_traitsIcEENS_9allocatorIcEEE13__get_pointerB8ue170006Ev, symObjAddr: 0xD8E0, symBinAddr: 0x10000E0F0, symSize: 0x50 }
  - { offsetInCU: 0x2858B, offset: 0x2858B, size: 0x8, addend: 0x0, symName: __ZNSt3__119ostreambuf_iteratorIcNS_11char_traitsIcEEEC2B8ue170006ERNS_13basic_ostreamIcS2_EE, symObjAddr: 0xD930, symBinAddr: 0x10000E140, symSize: 0x50 }
  - { offsetInCU: 0x285C3, offset: 0x285C3, size: 0x8, addend: 0x0, symName: __ZNKSt3__19basic_iosIcNS_11char_traitsIcEEE5widenB8ue170006Ec, symObjAddr: 0xD980, symBinAddr: 0x10000E190, symSize: 0x80 }
  - { offsetInCU: 0x285FA, offset: 0x285FA, size: 0x8, addend: 0x0, symName: __ZNKSt3__15ctypeIcE5widenB8ue170006Ec, symObjAddr: 0xDA00, symBinAddr: 0x10000E210, symSize: 0x30 }
  - { offsetInCU: 0x2862F, offset: 0x2862F, size: 0x8, addend: 0x0, symName: __ZNSt3__19basic_iosIcNS_11char_traitsIcEEEC2B8ue170006Ev, symObjAddr: 0xDA30, symBinAddr: 0x10000E240, symSize: 0x40 }
  - { offsetInCU: 0x28659, offset: 0x28659, size: 0x8, addend: 0x0, symName: __ZNSt3__113basic_istreamIcNS_11char_traitsIcEEEC2B8ue170006EPNS_15basic_streambufIcS2_EE, symObjAddr: 0xDA70, symBinAddr: 0x10000E280, symSize: 0x50 }
  - { offsetInCU: 0x2869E, offset: 0x2869E, size: 0x8, addend: 0x0, symName: __ZNSt3__18ios_baseC2B8ue170006Ev, symObjAddr: 0xDAC0, symBinAddr: 0x10000E2D0, symSize: 0x20 }
  - { offsetInCU: 0x286C8, offset: 0x286C8, size: 0x8, addend: 0x0, symName: __ZNSt3__19basic_iosIcNS_11char_traitsIcEEE4initB8ue170006EPNS_15basic_streambufIcS2_EE, symObjAddr: 0xDAE0, symBinAddr: 0x10000E2F0, symSize: 0x50 }
  - { offsetInCU: 0x286FF, offset: 0x286FF, size: 0x8, addend: 0x0, symName: __ZNSt3__18ios_base5rdbufB8ue170006EPv, symObjAddr: 0xDB30, symBinAddr: 0x10000E340, symSize: 0x29 }
...
